(dp1
I0
(dp2
S'num_refs'
p3
I1
sS'out_idba'
p4
(dp5
S'mem'
p6
F25126992
sS'time_kernel'
p7
F49.18
sS'time_user'
p8
F852.97000000000003
sS'time_wall'
p9
F285.85000000000002
ssS'out_minia'
p10
(dp11
g6
F882016
sg7
F6.5
sg8
F86.430000000000007
sg9
F526.50999999999999
ssS'out_spades'
p12
(dp13
g6
F8548464
sg7
F52.170000000000002
sg8
F1050.3
sg9
F1168.3900000000001
sssI1
(dp14
g3
I1
sg4
(dp15
g6
F1802864
sg7
F26.199999999999999
sg8
F610.67999999999995
sg9
F187.75
ssg10
(dp16
g6
F665904
sg7
F3.8300000000000001
sg8
F64.219999999999999
sg9
F306.02999999999997
ssg12
(dp17
g6
F6559040
sg7
F42.119999999999997
sg8
F838.65999999999997
sg9
F888.29999999999995
sssI2
(dp18
g3
I1
sg4
(dp19
g6
F2335024
sg7
F19.84
sg8
F844.02999999999997
sg9
F259.68000000000001
ssg10
(dp20
g6
F871280
sg7
F5.3200000000000003
sg8
F91.989999999999995
sg9
F422.19999999999999
ssg12
(dp21
g6
F8523504
sg7
F50.130000000000003
sg8
F1284.03
sg9
F1205.98
sssI3
(dp22
g3
I1
sg4
(dp23
g6
F1987728
sg7
F22.23
sg8
F289.74000000000001
sg9
F96.340000000000003
ssg10
(dp24
g6
F336496
sg7
F1.3300000000000001
sg8
F25.289999999999999
sg9
F143.31999999999999
ssg12
(dp25
g6
F3313104
sg7
F18.890000000000001
sg8
F434.5
sg9
F671.26999999999998
sssI4
(dp26
g3
I1
sg4
(dp27
g6
F2533792
sg7
F28.09
sg8
F754.34000000000003
sg9
F225.09
ssg10
(dp28
g6
F769792
sg7
F4.4199999999999999
sg8
F75.450000000000003
sg9
F374.45999999999998
ssg12
(dp29
g6
F7279216
sg7
F49.549999999999997
sg8
F963.28999999999996
sg9
F986.08000000000004
sssI5
(dp30
g3
I1
sg4
(dp31
g6
F1690432
sg7
F5.5300000000000002
sg8
F125.27
sg9
F42.32
ssg10
(dp32
g6
F177600
sg7
F0.57999999999999996
sg8
F11.789999999999999
sg9
F56.740000000000002
ssg12
(dp33
g6
F2237952
sg7
F8.8900000000000006
sg8
F263.38
sg9
F521.26999999999998
sssI6
(dp34
g3
I1
sg4
(dp35
g6
F18347216
sg7
F26.870000000000001
sg8
F700.20000000000005
sg9
F227.25
ssg10
(dp36
g6
F415024
sg7
F2.8399999999999999
sg8
F44.990000000000002
sg9
F229.66999999999999
ssg12
(dp37
g6
F3971136
sg7
F33.539999999999999
sg8
F622.67999999999995
sg9
F838.75
sssI7
(dp38
g3
I1
sg4
(dp39
g6
F1141216
sg7
F21.300000000000001
sg8
F628.62
sg9
F185.63999999999999
ssg10
(dp40
g6
F423744
sg7
F2.6699999999999999
sg8
F42.659999999999997
sg9
F232.49000000000001
ssg12
(dp41
g6
F4003632
sg7
F36.950000000000003
sg8
F707.05999999999995
sg9
F932.78999999999996
sssI8
(dp42
g3
I1
sg4
(dp43
g6
F1805152
sg7
F29.489999999999998
sg8
F1072.3399999999999
sg9
F315.25999999999999
ssg10
(dp44
g6
F663552
sg7
F4.7800000000000002
sg8
F93.109999999999999
sg9
F445.43000000000001
ssg12
(dp45
g6
F6550768
sg7
F55.979999999999997
sg8
F1118.8599999999999
sg9
F1235.4300000000001
sssI9
(dp46
g3
I1
sg4
(dp47
g6
F1011968
sg7
F14.529999999999999
sg8
F579.46000000000004
sg9
F171.38999999999999
ssg10
(dp48
g6
F388864
sg7
F2.5099999999999998
sg8
F39.189999999999998
sg9
F200.59
ssg12
(dp49
g6
F3904416
sg7
F32.520000000000003
sg8
F612.79999999999995
sg9
F895.23000000000002
sssI10
(dp50
g3
I2
sg4
(dp51
g6
F25373776
sg7
F119.83
sg8
F2597.7199999999998
sg9
F788
ssg10
(dp52
g6
F1511552
sg7
F19.59
sg8
F252.18000000000001
sg9
F1168.6199999999999
ssg12
(dp53
g6
F10859888
sg7
F163.22999999999999
sg8
F2720.77
sg9
F2200.4400000000001
sssI11
(dp54
g3
I2
sg4
(dp55
g6
F13798816
sg7
F130.69
sg8
F3136.3099999999999
sg9
F946.38999999999999
ssg10
(dp56
g6
F1709968
sg7
F25.140000000000001
sg8
F310.49000000000001
sg9
F1264.79
ssg12
(dp57
g6
F10860080
sg7
F178.56
sg8
F3364.3400000000001
sg9
F2567.3299999999999
sssI12
(dp58
g3
I2
sg4
(dp59
g6
F19164992
sg7
F91.310000000000002
sg8
F2078.27
sg9
F638.77999999999997
ssg10
(dp60
g6
F1194912
sg7
F12.68
sg8
F174.05000000000001
sg9
F866.98000000000002
ssg12
(dp61
g6
F10875792
sg7
F114.97
sg8
F2057.5
sg9
F1784.97
sssI13
(dp62
g3
I2
sg4
(dp63
g6
F25426400
sg7
F63.909999999999997
sg8
F1703.4100000000001
sg9
F524.30999999999995
ssg10
(dp64
g6
F1612272
sg7
F14.17
sg8
F210.30000000000001
sg9
F954.32000000000005
ssg12
(dp65
g6
F10890976
sg7
F105.09999999999999
sg8
F2070.8699999999999
sg9
F1672.79
sssI14
(dp66
g3
I2
sg4
(dp67
g6
F19228160
sg7
F88.709999999999994
sg8
F1810.5
sg9
F550.03999999999996
ssg10
(dp68
g6
F1012336
sg7
F10.630000000000001
sg8
F140.81
sg9
F719.38999999999999
ssg12
(dp69
g6
F9867232
sg7
F89.359999999999999
sg8
F1707.1600000000001
sg9
F1563.1700000000001
sssI15
(dp70
g3
I2
sg4
(dp71
g6
F30679488
sg7
F111.43000000000001
sg8
F2237.2800000000002
sg9
F685.94000000000005
ssg10
(dp72
g6
F1266560
sg7
F13.699999999999999
sg8
F189.87
sg9
F1028.3
ssg12
(dp73
g6
F10882560
sg7
F132.59
sg8
F2250.9699999999998
sg9
F1990.3900000000001
sssI16
(dp74
g3
I2
sg4
(dp75
g6
F25150336
sg7
F134.28999999999999
sg8
F2178.4099999999999
sg9
F672.05999999999995
ssg10
(dp76
g6
F1281696
sg7
F15.609999999999999
sg8
F189.50999999999999
sg9
F1035.3699999999999
ssg12
(dp77
g6
F10865904
sg7
F133.13999999999999
sg8
F2270.8000000000002
sg9
F1987.95
sssI17
(dp78
g3
I2
sg4
(dp79
g6
F25372240
sg7
F41.049999999999997
sg8
F1447.8199999999999
sg9
F458.58999999999997
ssg10
(dp80
g6
F1506736
sg7
F12.4
sg8
F178.86000000000001
sg9
F996.80999999999995
ssg12
(dp81
g6
F10851600
sg7
F100.06
sg8
F1872.79
sg9
F1630.05
sssI18
(dp82
g3
I2
sg4
(dp83
g6
F19403792
sg7
F100.81
sg8
F2236.3499999999999
sg9
F685.95000000000005
ssg10
(dp84
g6
F1230336
sg7
F14.32
sg8
F181.59999999999999
sg9
F817.42999999999995
ssg12
(dp85
g6
F10881168
sg7
F124.33
sg8
F2179.9299999999998
sg9
F1960.3399999999999
sssI19
(dp86
g3
I2
sg4
(dp87
g6
F4115264
sg7
F99.980000000000004
sg8
F2627.2199999999998
sg9
F780.50999999999999
ssg10
(dp88
g6
F1491952
sg7
F17.699999999999999
sg8
F256.63999999999999
sg9
F1092.6600000000001
ssg12
(dp89
g6
F10868032
sg7
F156.50999999999999
sg8
F2952.75
sg9
F2409.5900000000001
sssI20
(dp90
g3
I2
sg4
(dp91
g6
F2724704
sg7
F36.5
sg8
F943.5
sg9
F291.14999999999998
ssg10
(dp92
g6
F972352
sg7
F6.0999999999999996
sg8
F93.219999999999999
sg9
F566.15999999999997
ssg12
(dp93
g6
F9243184
sg7
F58.75
sg8
F1143.52
sg9
F1180.3199999999999
sssI21
(dp94
g3
I2
sg4
(dp95
g6
F3915120
sg7
F94.769999999999996
sg8
F2559.6199999999999
sg9
F753.65999999999997
ssg10
(dp96
g6
F1391104
sg7
F16.550000000000001
sg8
F224.06999999999999
sg9
F986.28999999999996
ssg12
(dp97
g6
F10808128
sg7
F144.09999999999999
sg8
F2415.8400000000001
sg9
F2141.21
sssI22
(dp98
g3
I2
sg4
(dp99
g6
F2151696
sg7
F44.979999999999997
sg8
F770.63999999999999
sg9
F239.5
ssg10
(dp100
g6
F797024
sg7
F4.3200000000000003
sg8
F78.090000000000003
sg9
F466.10000000000002
ssg12
(dp101
g6
F7869616
sg7
F49.219999999999999
sg8
F1003.49
sg9
F1102.97
sssI23
(dp102
g3
I2
sg4
(dp103
g6
F18670544
sg7
F40.82
sg8
F1015.01
sg9
F325.19999999999999
ssg10
(dp104
g6
F1047488
sg7
F8.6500000000000004
sg8
F108.89
sg9
F646.74000000000001
ssg12
(dp105
g6
F9901200
sg7
F62.560000000000002
sg8
F1250.6600000000001
sg9
F1385.8599999999999
sssI24
(dp106
g3
I2
sg4
(dp107
g6
F2932320
sg7
F51.350000000000001
sg8
F1030.3299999999999
sg9
F321.50999999999999
ssg10
(dp108
g6
F1058656
sg7
F7
sg8
F104.31
sg9
F529.38
ssg12
(dp109
g6
F10457984
sg7
F64.170000000000002
sg8
F1249.29
sg9
F1338.1800000000001
sssI25
(dp110
g3
I2
sg4
(dp111
g6
F2498608
sg7
F75.810000000000002
sg8
F1714.27
sg9
F520.16999999999996
ssg10
(dp112
g6
F1287024
sg7
F7.1100000000000003
sg8
F98.620000000000005
sg9
F723.35000000000002
ssg12
(dp113
g6
F10795184
sg7
F91.709999999999994
sg8
F1702.6300000000001
sg9
F1521.4400000000001
sssI26
(dp114
g3
I2
sg4
(dp115
g6
F2861440
sg7
F55.130000000000003
sg8
F1030.72
sg9
F318.93000000000001
ssg10
(dp116
g6
F1023776
sg7
F6.5999999999999996
sg8
F105.40000000000001
sg9
F466.86000000000001
ssg12
(dp117
g6
F9859024
sg7
F63.68
sg8
F1295.46
sg9
F1267.1900000000001
sssI27
(dp118
g3
I2
sg4
(dp119
g6
F3253808
sg7
F56.759999999999998
sg8
F1174.24
sg9
F369.77999999999997
ssg10
(dp120
g6
F1166624
sg7
F8.1899999999999995
sg8
F127.98
sg9
F637.86000000000001
ssg12
(dp121
g6
F10834528
sg7
F74.019999999999996
sg8
F1671.4200000000001
sg9
F1442.6099999999999
sssI28
(dp122
g3
I2
sg4
(dp123
g6
F4399488
sg7
F111.79000000000001
sg8
F2883.9299999999998
sg9
F851.41999999999996
ssg10
(dp124
g6
F1592224
sg7
F23.27
sg8
F298.42000000000002
sg9
F1025.1500000000001
ssg12
(dp125
g6
F10817008
sg7
F150.97999999999999
sg8
F3114.5599999999999
sg9
F2177.0100000000002
sssI29
(dp126
g3
I2
sg4
(dp127
g6
F2807728
sg7
F64.769999999999996
sg8
F1040.6800000000001
sg9
F323.92000000000002
ssg10
(dp128
g6
F1003696
sg7
F7.5099999999999998
sg8
F111.84999999999999
sg9
F534.96000000000004
ssg12
(dp129
g6
F9834112
sg7
F64.540000000000006
sg8
F1570.8699999999999
sg9
F1387.0899999999999
sssI30
(dp130
g3
I2
sg4
(dp131
g6
F18812352
sg7
F88.329999999999998
sg8
F2202.5799999999999
sg9
F672.86000000000001
ssg10
(dp132
g6
F1251600
sg7
F15.210000000000001
sg8
F194.87
sg9
F685.19000000000005
ssg12
(dp133
g6
F10816272
sg7
F127.11
sg8
F2526.7199999999998
sg9
F1840.96
sssI31
(dp134
g3
I2
sg4
(dp135
g6
F3475840
sg7
F12.84
sg8
F1164.01
sg9
F352.12
ssg10
(dp136
g6
F1271984
sg7
F9.4900000000000002
sg8
F139.58000000000001
sg9
F465.19999999999999
ssg12
(dp137
g6
F10832448
sg7
F79.420000000000002
sg8
F1769.29
sg9
F1505.8599999999999
sssI32
(dp138
g3
I2
sg4
(dp139
g6
F4100256
sg7
F45.469999999999999
sg8
F1417.3699999999999
sg9
F444.50999999999999
ssg10
(dp140
g6
F1496944
sg7
F15.710000000000001
sg8
F190.97999999999999
sg9
F934.78999999999996
ssg12
(dp141
g6
F10851200
sg7
F99.170000000000002
sg8
F2049.4299999999998
sg9
F1634.5699999999999
sssI33
(dp142
g3
I2
sg4
(dp143
g6
F3384752
sg7
F102.56999999999999
sg8
F2140.6500000000001
sg9
F645.25
ssg10
(dp144
g6
F1217264
sg7
F14.42
sg8
F197.84
sg9
F760.08000000000004
ssg12
(dp145
g6
F10811440
sg7
F118.13
sg8
F2446.0999999999999
sg9
F1762.0699999999999
sssI34
(dp146
g3
I2
sg4
(dp147
g6
F4198320
sg7
F66.670000000000002
sg8
F1830.5899999999999
sg9
F551.77999999999997
ssg10
(dp148
g6
F1069024
sg7
F11.07
sg8
F148.09999999999999
sg9
F558.76999999999998
ssg12
(dp149
g6
F10491744
sg7
F102.79000000000001
sg8
F1839.0799999999999
sg9
F1501.3599999999999
sssI35
(dp150
g3
I2
sg4
(dp151
g6
F3183456
sg7
F30.760000000000002
sg8
F795.40999999999997
sg9
F244.03999999999999
ssg10
(dp152
g6
F476048
sg7
F3.0600000000000001
sg8
F49.32
sg9
F195.19
ssg12
(dp153
g6
F4623696
sg7
F36.07
sg8
F799.91999999999996
sg9
F1048.6600000000001
sssI36
(dp154
g3
I2
sg4
(dp155
g6
F18554736
sg7
F55.399999999999999
sg8
F1219.8
sg9
F383.01999999999998
ssg10
(dp156
g6
F720224
sg7
F6.1900000000000004
sg8
F88.480000000000004
sg9
F326.44999999999999
ssg12
(dp157
g6
F7179616
sg7
F59.07
sg8
F1127.47
sg9
F1154.6400000000001
sssI37
(dp158
g3
I2
sg4
(dp159
g6
F2164448
sg7
F40.359999999999999
sg8
F672.41999999999996
sg9
F220.55000000000001
ssg10
(dp160
g6
F734240
sg7
F3.9700000000000002
sg8
F66.629999999999995
sg9
F236.56
ssg12
(dp161
g6
F7212064
sg7
F43.770000000000003
sg8
F905.13999999999999
sg9
F1079.4000000000001
sssI38
(dp162
g3
I2
sg4
(dp163
g6
F3450720
sg7
F93.170000000000002
sg8
F1672
sg9
F504.81999999999999
ssg10
(dp164
g6
F960016
sg7
F9.0600000000000005
sg8
F131.71000000000001
sg9
F534.10000000000002
ssg12
(dp165
g6
F9234912
sg7
F90.909999999999997
sg8
F1647.4200000000001
sg9
F1357.27
sssI39
(dp166
g3
I2
sg4
(dp167
g6
F2135520
sg7
F41.189999999999998
sg8
F1080.8900000000001
sg9
F326.92000000000002
ssg10
(dp168
g6
F685344
sg7
F6.0300000000000002
sg8
F80.680000000000007
sg9
F347.70999999999998
ssg12
(dp169
g6
F6600816
sg7
F67.140000000000001
sg8
F1234.74
sg9
F1228.22
sssI40
(dp170
g3
I2
sg4
(dp171
g6
F2581200
sg7
F69.030000000000001
sg8
F1469.79
sg9
F436.45999999999998
ssg10
(dp172
g6
F894624
sg7
F8.8699999999999992
sg8
F118.93000000000001
sg9
F371.83999999999997
ssg12
(dp173
g6
F8589792
sg7
F84.209999999999994
sg8
F1503.0699999999999
sg9
F1322.5699999999999
sssI41
(dp174
g3
I2
sg4
(dp175
g6
F18787872
sg7
F88.219999999999999
sg8
F1238.8299999999999
sg9
F395.10000000000002
ssg10
(dp176
g6
F1144256
sg7
F8.3200000000000003
sg8
F125.31
sg9
F408.77999999999997
ssg12
(dp177
g6
F10825600
sg7
F72.709999999999994
sg8
F1452.6900000000001
sg9
F1176.05
sssI42
(dp178
g3
I2
sg4
(dp179
g6
F3228096
sg7
F71.390000000000001
sg8
F1947.9300000000001
sg9
F594.25999999999999
ssg10
(dp180
g6
F1156240
sg7
F13.300000000000001
sg8
F176.03999999999999
sg9
F551.79999999999995
ssg12
(dp181
g6
F10850384
sg7
F110.2
sg8
F1967.48
sg9
F1415.51
sssI43
(dp182
g3
I2
sg4
(dp183
g6
F4060736
sg7
F94.829999999999998
sg8
F2517.4000000000001
sg9
F741.47000000000003
ssg10
(dp184
g6
F1382928
sg7
F15.35
sg8
F228.56
sg9
F654.42999999999995
ssg12
(dp185
g6
F10816240
sg7
F136.99000000000001
sg8
F2426.8499999999999
sg9
F1735.71
sssI44
(dp186
g3
I2
sg4
(dp187
g6
F3139296
sg7
F58.299999999999997
sg8
F1177.5899999999999
sg9
F359.95999999999998
ssg10
(dp188
g6
F1116560
sg7
F8.0600000000000005
sg8
F123.98999999999999
sg9
F371.76999999999998
ssg12
(dp189
g6
F10833296
sg7
F69.310000000000002
sg8
F1408.48
sg9
F1106.1600000000001
sssI45
(dp190
g3
I2
sg4
(dp191
g6
F18395872
sg7
F19.34
sg8
F521.12
sg9
F171.69999999999999
ssg10
(dp192
g6
F556368
sg7
F2.7599999999999998
sg8
F45.490000000000002
sg9
F167.09999999999999
ssg12
(dp193
g6
F5281728
sg7
F29.829999999999998
sg8
F628.17999999999995
sg9
F714.47000000000003
sssI46
(dp194
g3
I2
sg4
(dp195
g6
F2156656
sg7
F34.340000000000003
sg8
F510.12
sg9
F171.25999999999999
ssg10
(dp196
g6
F563856
sg7
F2.7799999999999998
sg8
F45.200000000000003
sg9
F170.43000000000001
ssg12
(dp197
g6
F5314192
sg7
F32.109999999999999
sg8
F735.25
sg9
F766.19000000000005
sssI47
(dp198
g3
I2
sg4
(dp199
g6
F2148016
sg7
F57.200000000000003
sg8
F1321.6300000000001
sg9
F390.85000000000002
ssg10
(dp200
g6
F802512
sg7
F6.5899999999999999
sg8
F108.43000000000001
sg9
F416.75
ssg12
(dp201
g6
F7869344
sg7
F71.590000000000003
sg8
F1314.5899999999999
sg9
F1041.03
sssI48
(dp202
g3
I2
sg4
(dp203
g6
F1437200
sg7
F10.960000000000001
sg8
F473.67000000000002
sg9
F142.63
ssg10
(dp204
g6
F520144
sg7
F2.52
sg8
F43.210000000000001
sg9
F157.78999999999999
ssg12
(dp205
g6
F5223184
sg7
F29.949999999999999
sg8
F666.89999999999998
sg9
F680.87
sssI49
(dp206
g3
I2
sg4
(dp207
g6
F18545104
sg7
F79.269999999999996
sg8
F1362.4200000000001
sg9
F424.01999999999998
ssg10
(dp208
g6
F807424
sg7
F7.3099999999999996
sg8
F100.77
sg9
F331.66000000000003
ssg12
(dp209
g6
F7870112
sg7
F72.760000000000005
sg8
F1352.3199999999999
sg9
F1168.6700000000001
sssI50
(dp210
g3
I2
sg4
(dp211
g6
F18630032
sg7
F80.540000000000006
sg8
F1828.95
sg9
F563.17999999999995
ssg10
(dp212
g6
F1034128
sg7
F10.800000000000001
sg8
F158.09999999999999
sg9
F484.39999999999998
ssg12
(dp213
g6
F9901104
sg7
F105.45999999999999
sg8
F1772.9000000000001
sg9
F1362.4300000000001
sssI51
(dp214
g3
I2
sg4
(dp215
g6
F21648976
sg7
F89.109999999999999
sg8
F1374.0799999999999
sg9
F444.56999999999999
ssg10
(dp216
g6
F763808
sg7
F6.2800000000000002
sg8
F112.95999999999999
sg9
F332.17000000000002
ssg12
(dp217
g6
F7279328
sg7
F71.349999999999994
sg8
F1252.05
sg9
F1066.8699999999999
sssI52
(dp218
g3
I2
sg4
(dp219
g6
F2925648
sg7
F35.359999999999999
sg8
F1027.99
sg9
F317.63
ssg10
(dp220
g6
F1052144
sg7
F7.1200000000000001
sg8
F106.05
sg9
F371.14999999999998
ssg12
(dp221
g6
F10457904
sg7
F64.420000000000002
sg8
F1263.53
sg9
F996.96000000000004
sssI53
(dp222
g3
I2
sg4
(dp223
g6
F2095152
sg7
F38.689999999999998
sg8
F733.32000000000005
sg9
F229.72
ssg10
(dp224
g6
F776352
sg7
F4.4199999999999999
sg8
F68.109999999999999
sg9
F254.43000000000001
ssg12
(dp225
g6
F7803360
sg7
F46.789999999999999
sg8
F931.99000000000001
sg9
F815.57000000000005
sssI54
(dp226
g3
I2
sg4
(dp227
g6
F2853280
sg7
F74.280000000000001
sg8
F1817.49
sg9
F539.91999999999996
ssg10
(dp228
g6
F1012448
sg7
F9.3000000000000007
sg8
F155.77000000000001
sg9
F451.06999999999999
ssg12
(dp229
g6
F9850768
sg7
F102.70999999999999
sg8
F1718.6800000000001
sg9
F1309.3
sssI55
(dp230
g3
I3
sg4
(dp231
g6
F20169072
sg7
F133.56999999999999
sg8
F2259.0799999999999
sg9
F715.38
ssg10
(dp232
g6
F2344208
sg7
F33.259999999999998
sg8
F389.18000000000001
sg9
F1848.3299999999999
ssg12
(dp233
g6
F12752016
sg7
F164.36000000000001
sg8
F3156
sg9
F2182.4299999999998
sssI56
(dp234
g3
I3
sg4
(dp235
g6
F13879776
sg7
F89.739999999999995
sg8
F1915.76
sg9
F593.91999999999996
ssg10
(dp236
g6
F1815344
sg7
F17.120000000000001
sg8
F255.22
sg9
F746.48000000000002
ssg12
(dp237
g6
F10859936
sg7
F118.48999999999999
sg8
F2338.6900000000001
sg9
F1556.7
sssI57
(dp238
g3
I3
sg4
(dp239
g6
F15263200
sg7
F213.69
sg8
F4250.71
sg9
F1303.29
ssg10
(dp240
g6
F2233136
sg7
F41.399999999999999
sg8
F474.31
sg9
F1571.21
ssg12
(dp241
g6
F12272592
sg7
F269.24000000000001
sg8
F4235.2299999999996
sg9
F2759.5300000000002
sssI58
(dp242
g3
I3
sg4
(dp243
g6
F19661200
sg7
F129.08000000000001
sg8
F2819.6999999999998
sg9
F863.28999999999996
ssg10
(dp244
g6
F1648368
sg7
F21.670000000000002
sg8
F324.83999999999997
sg9
F970.09000000000003
ssg12
(dp245
g6
F10859904
sg7
F178.72
sg8
F3021.8600000000001
sg9
F2086.8699999999999
sssI59
(dp246
g3
I3
sg4
(dp247
g6
F31467968
sg7
F73.939999999999998
sg8
F1911.9300000000001
sg9
F587.19000000000005
ssg10
(dp248
g6
F1887120
sg7
F17.989999999999998
sg8
F252.06999999999999
sg9
F836.53999999999996
ssg12
(dp249
g6
F10860032
sg7
F128.44999999999999
sg8
F2337.6900000000001
sg9
F1635.3099999999999
sssI60
(dp250
g3
I3
sg4
(dp251
g6
F25569152
sg7
F184.11000000000001
sg8
F3401.3000000000002
sg9
F1018.9
ssg10
(dp252
g6
F1897408
sg7
F31.129999999999999
sg8
F375.58999999999997
sg9
F1169.76
ssg12
(dp253
g6
F10859920
sg7
F205.91999999999999
sg8
F3496.5
sg9
F2356.0799999999999
sssI61
(dp254
g3
I3
sg4
(dp255
g6
F13861568
sg7
F177.37
sg8
F2011.27
sg9
F639.88
ssg10
(dp256
g6
F2139424
sg7
F14.529999999999999
sg8
F206.30000000000001
sg9
F657.69000000000005
ssg12
(dp257
g6
F10874752
sg7
F131.59999999999999
sg8
F2557.1999999999998
sg9
F1610.5899999999999
sssI62
(dp258
g3
I3
sg4
(dp259
g6
F19667776
sg7
F162.75999999999999
sg8
F3405.1399999999999
sg9
F1034.3900000000001
ssg10
(dp260
g6
F1858176
sg7
F34.270000000000003
sg8
F348.14999999999998
sg9
F1199.8900000000001
ssg12
(dp261
g6
F10867680
sg7
F219.24000000000001
sg8
F3464.1599999999999
sg9
F2395.0599999999999
sssI63
(dp262
g3
I3
sg4
(dp263
g6
F19904400
sg7
F177.21000000000001
sg8
F3715.9899999999998
sg9
F1126.8699999999999
ssg10
(dp264
g6
F2015328
sg7
F32.670000000000002
sg8
F415.64999999999998
sg9
F1304.9100000000001
ssg12
(dp265
g6
F11118800
sg7
F246.40000000000001
sg8
F4097.1899999999996
sg9
F2687.3899999999999
sssI64
(dp266
g3
I3
sg4
(dp267
g6
F14157424
sg7
F86.629999999999995
sg8
F2323.8600000000001
sg9
F722.54999999999995
ssg10
(dp268
g6
F2445008
sg7
F27.16
sg8
F382.70999999999998
sg9
F1143.3499999999999
ssg12
(dp269
g6
F13305664
sg7
F179.50999999999999
sg8
F3325.4699999999998
sg9
F2178.5700000000002
sssI65
(dp270
g3
I3
sg4
(dp271
g6
F25583728
sg7
F113.38
sg8
F1865.9000000000001
sg9
F590.92999999999995
ssg10
(dp272
g6
F1851744
sg7
F17.010000000000002
sg8
F251.86000000000001
sg9
F810.11000000000001
ssg12
(dp273
g6
F10868336
sg7
F127.2
sg8
F2557.6500000000001
sg9
F1805.28
sssI66
(dp274
g3
I3
sg4
(dp275
g6
F28839472
sg7
F229.97999999999999
sg8
F3798.8400000000001
sg9
F1163.97
ssg10
(dp276
g6
F2089264
sg7
F40.950000000000003
sg8
F448.77999999999997
sg9
F1197.8499999999999
ssg12
(dp277
g6
F11534128
sg7
F243.69
sg8
F4176.5100000000002
sg9
F2757.3299999999999
sssI67
(dp278
g3
I3
sg4
(dp279
g6
F13875056
sg7
F188.41999999999999
sg8
F3818.1100000000001
sg9
F1160.05
ssg10
(dp280
g6
F2102352
sg7
F37.219999999999999
sg8
F433.29000000000002
sg9
F1174.01
ssg12
(dp281
g6
F11515168
sg7
F251.28999999999999
sg8
F4201.5500000000002
sg9
F2714.6999999999998
sssI68
(dp282
g3
I3
sg4
(dp283
g6
F20801936
sg7
F234.44
sg8
F4148.75
sg9
F1262.3800000000001
ssg10
(dp284
g6
F2341600
sg7
F45.079999999999998
sg8
F556.12
sg9
F1408.77
ssg12
(dp285
g6
F12721360
sg7
F271.25999999999999
sg8
F4651.5299999999997
sg9
F2925.5999999999999
sssI69
(dp286
g3
I3
sg4
(dp287
g6
F25702448
sg7
F226.09
sg8
F3863.0300000000002
sg9
F1179.72
ssg10
(dp288
g6
F2058768
sg7
F37.600000000000001
sg8
F446.07999999999998
sg9
F1217.4200000000001
ssg12
(dp289
g6
F11389520
sg7
F232.88999999999999
sg8
F4096.5900000000001
sg9
F2592.4200000000001
sssI70
(dp290
g3
I3
sg4
(dp291
g6
F19797248
sg7
F172.93000000000001
sg8
F3446.5700000000002
sg9
F1056.8699999999999
ssg10
(dp292
g6
F1906144
sg7
F30.109999999999999
sg8
F373.87
sg9
F1110.55
ssg12
(dp293
g6
F10875776
sg7
F214.75
sg8
F3418.3000000000002
sg9
F2335.3400000000001
sssI71
(dp294
g3
I3
sg4
(dp295
g6
F25194432
sg7
F95.010000000000005
sg8
F1311.77
sg9
F416.23000000000002
ssg10
(dp296
g6
F1324176
sg7
F10.34
sg8
F154.56
sg9
F356.52999999999997
ssg12
(dp297
g6
F10875728
sg7
F79.620000000000005
sg8
F1643.9100000000001
sg9
F1218.01
sssI72
(dp298
g3
I3
sg4
(dp299
g6
F19146192
sg7
F95.209999999999994
sg8
F1675.1400000000001
sg9
F529.72000000000003
ssg10
(dp300
g6
F1559856
sg7
F13.77
sg8
F201.06999999999999
sg9
F460.49000000000001
ssg12
(dp301
g6
F10875952
sg7
F99.030000000000001
sg8
F2048.75
sg9
F1412.8800000000001
sssI73
(dp302
g3
I3
sg4
(dp303
g6
F19437984
sg7
F71.239999999999995
sg8
F1556.8499999999999
sg9
F490.99000000000001
ssg10
(dp304
g6
F1575552
sg7
F14.07
sg8
F185.49000000000001
sg9
F476.99000000000001
ssg12
(dp305
g6
F10875712
sg7
F100.22
sg8
F1899.2
sg9
F1265.4400000000001
sssI74
(dp306
g3
I3
sg4
(dp307
g6
F13831520
sg7
F146.13
sg8
F3415.6100000000001
sg9
F1022.09
ssg10
(dp308
g6
F1810208
sg7
F27.960000000000001
sg8
F396.11000000000001
sg9
F797.42999999999995
ssg12
(dp309
g6
F10875744
sg7
F202.44
sg8
F3421.73
sg9
F2183.9099999999999
sssI75
(dp310
g3
I3
sg4
(dp311
g6
F13573072
sg7
F47.549999999999997
sg8
F1452.8599999999999
sg9
F450.58999999999997
ssg10
(dp312
g6
F1541840
sg7
F16.690000000000001
sg8
F190.16
sg9
F594.58000000000004
ssg12
(dp313
g6
F10875744
sg7
F100.13
sg8
F1863.9400000000001
sg9
F1206.0699999999999
sssI76
(dp314
g3
I3
sg4
(dp315
g6
F19734256
sg7
F52.770000000000003
sg8
F1720.22
sg9
F536.24000000000001
ssg10
(dp316
g6
F1745968
sg7
F16.559999999999999
sg8
F222.06999999999999
sg9
F545.22000000000003
ssg12
(dp317
g6
F10890992
sg7
F114.09
sg8
F2144.0599999999999
sg9
F1350.28
sssI77
(dp318
g3
I3
sg4
(dp319
g6
F22209120
sg7
F82.280000000000001
sg8
F2030.4300000000001
sg9
F641.25
ssg10
(dp320
g6
F1990592
sg7
F20.760000000000002
sg8
F271.13999999999999
sg9
F663.97000000000003
ssg12
(dp321
g6
F11107600
sg7
F137.47999999999999
sg8
F2484.21
sg9
F1559.04
sssI78
(dp322
g3
I3
sg4
(dp323
g6
F19888624
sg7
F132.59
sg8
F3573.1999999999998
sg9
F1081.96
ssg10
(dp324
g6
F1993344
sg7
F36.899999999999999
sg8
F396.19
sg9
F952.37
ssg12
(dp325
g6
F11052656
sg7
F221.40000000000001
sg8
F3741.6900000000001
sg9
F2288.6300000000001
sssI79
(dp326
g3
I3
sg4
(dp327
g6
F19924416
sg7
F165.16999999999999
sg8
F2436.2399999999998
sg9
F762.26999999999998
ssg10
(dp328
g6
F2244608
sg7
F23.91
sg8
F336.08999999999997
sg9
F756.70000000000005
ssg12
(dp329
g6
F12275504
sg7
F153.66999999999999
sg8
F2911.54
sg9
F1732.6500000000001
sssI80
(dp330
g3
I3
sg4
(dp331
g6
F19957264
sg7
F146.16999999999999
sg8
F2120.7199999999998
sg9
F653.34000000000003
ssg10
(dp332
g6
F1961168
sg7
F19.829999999999998
sg8
F275.94
sg9
F687.42999999999995
ssg12
(dp333
g6
F10924944
sg7
F130.33000000000001
sg8
F2544.4499999999998
sg9
F1554.0599999999999
sssI81
(dp334
g3
I3
sg4
(dp335
g6
F24813472
sg7
F133.74000000000001
sg8
F2488.4400000000001
sg9
F768.44000000000005
ssg10
(dp336
g6
F1391680
sg7
F17.609999999999999
sg8
F255.28999999999999
sg9
F618.50999999999999
ssg12
(dp337
g6
F10876416
sg7
F148.87
sg8
F2502.3699999999999
sg9
F1575.9400000000001
sssI82
(dp338
g3
I3
sg4
(dp339
g6
F19327136
sg7
F54.030000000000001
sg8
F1356.74
sg9
F428.42000000000002
ssg10
(dp340
g6
F1404720
sg7
F11.619999999999999
sg8
F157.03999999999999
sg9
F401.75
ssg12
(dp341
g6
F10892880
sg7
F88.290000000000006
sg8
F1693.8199999999999
sg9
F1113
sssI83
(dp342
g3
I3
sg4
(dp343
g6
F25631824
sg7
F125.68000000000001
sg8
F2879.6599999999999
sg9
F863.49000000000001
ssg10
(dp344
g6
F1640192
sg7
F23.890000000000001
sg8
F302.61000000000001
sg9
F801.59000000000003
ssg12
(dp345
g6
F10867312
sg7
F199.18000000000001
sg8
F3040.7199999999998
sg9
F1907.01
sssI84
(dp346
g3
I3
sg4
(dp347
g6
F13492032
sg7
F107.14
sg8
F2279.9200000000001
sg9
F684.24000000000001
ssg10
(dp348
g6
F1365504
sg7
F18.969999999999999
sg8
F231.38
sg9
F644.09000000000003
ssg12
(dp349
g6
F10859280
sg7
F155.38999999999999
sg8
F2495.9899999999998
sg9
F1628.0799999999999
sssI85
(dp350
g3
I3
sg4
(dp351
g6
F28560336
sg7
F146.44
sg8
F2997.8600000000001
sg9
F895.90999999999997
ssg10
(dp352
g6
F1644528
sg7
F23.5
sg8
F302.95999999999998
sg9
F766.14999999999998
ssg12
(dp353
g6
F10882624
sg7
F191.00999999999999
sg8
F3033.4499999999998
sg9
F1989.8199999999999
sssI86
(dp354
g3
I3
sg4
(dp355
g6
F25049392
sg7
F144.66999999999999
sg8
F3341.6900000000001
sg9
F1006.24
ssg10
(dp356
g6
F1884336
sg7
F29.140000000000001
sg8
F369.76999999999998
sg9
F907.89999999999998
ssg12
(dp357
g6
F10882608
sg7
F210.81
sg8
F3413.1999999999998
sg9
F2232.0599999999999
sssI87
(dp358
g3
I3
sg4
(dp359
g6
F32100576
sg7
F180.61000000000001
sg8
F3014.0300000000002
sg9
F924.02999999999997
ssg10
(dp360
g6
F1609664
sg7
F22.27
sg8
F315.86000000000001
sg9
F764.46000000000004
ssg12
(dp361
g6
F10882576
sg7
F195.71000000000001
sg8
F2871.4299999999998
sg9
F1878.6600000000001
sssI88
(dp362
g3
I3
sg4
(dp363
g6
F25581728
sg7
F65.030000000000001
sg8
F1835.27
sg9
F569.83000000000004
ssg10
(dp364
g6
F1901168
sg7
F24.359999999999999
sg8
F265.48000000000002
sg9
F903.20000000000005
ssg12
(dp365
g6
F10873696
sg7
F126.90000000000001
sg8
F2322.1199999999999
sg9
F1492.6300000000001
sssI89
(dp366
g3
I3
sg4
(dp367
g6
F25609680
sg7
F160.96000000000001
sg8
F2922.4299999999998
sg9
F887.69000000000005
ssg10
(dp368
g6
F1622736
sg7
F22.510000000000002
sg8
F287.11000000000001
sg9
F741.66999999999996
ssg12
(dp369
g6
F10865904
sg7
F178.50999999999999
sg8
F2909.48
sg9
F1955.8900000000001
sssI90
(dp370
g3
I3
sg4
(dp371
g6
F19595584
sg7
F225.93000000000001
sg8
F3417.0900000000001
sg9
F1053.3099999999999
ssg10
(dp372
g6
F1853808
sg7
F28.280000000000001
sg8
F364.31999999999999
sg9
F843.38999999999999
ssg12
(dp373
g6
F10859440
sg7
F189.28
sg8
F3356.3699999999999
sg9
F2173.3400000000001
sssI91
(dp374
g3
I3
sg4
(dp375
g6
F5406944
sg7
F46.259999999999998
sg8
F1791.1099999999999
sg9
F537.47000000000003
ssg10
(dp376
g6
F1798352
sg7
F17.43
sg8
F238.52000000000001
sg9
F606.82000000000005
ssg12
(dp377
g6
F10868112
sg7
F120.22
sg8
F2464.2800000000002
sg9
F1494.25
sssI92
(dp378
g3
I3
sg4
(dp379
g6
F6298224
sg7
F91.519999999999996
sg8
F2278.6300000000001
sg9
F686.33000000000004
ssg10
(dp380
g6
F2226672
sg7
F24.949999999999999
sg8
F329.38999999999999
sg9
F756.24000000000001
ssg12
(dp381
g6
F12190064
sg7
F156.96000000000001
sg8
F3022.1999999999998
sg9
F1829.48
sssI93
(dp382
g3
I3
sg4
(dp383
g6
F4457792
sg7
F23.91
sg8
F1600.04
sg9
F475.62
ssg10
(dp384
g6
F1632336
sg7
F14.4
sg8
F204.09999999999999
sg9
F493.17000000000002
ssg12
(dp385
g6
F10868128
sg7
F107.43000000000001
sg8
F2251.4299999999998
sg9
F1411.05
sssI94
(dp386
g3
I3
sg4
(dp387
g6
F19220464
sg7
F112.62
sg8
F2001.1600000000001
sg9
F616.34000000000003
ssg10
(dp388
g6
F1882736
sg7
F18.469999999999999
sg8
F269.19
sg9
F605.51999999999998
ssg12
(dp389
g6
F10868288
sg7
F124.34
sg8
F2662.6700000000001
sg9
F1562.8800000000001
sssI95
(dp390
g3
I3
sg4
(dp391
g6
F5372128
sg7
F95.269999999999996
sg8
F1976.8399999999999
sg9
F612.25999999999999
ssg10
(dp392
g6
F1886128
sg7
F18.699999999999999
sg8
F272.10000000000002
sg9
F611.25999999999999
ssg12
(dp393
g6
F10866912
sg7
F119.98999999999999
sg8
F2644.4200000000001
sg9
F1569.3900000000001
sssI96
(dp394
g3
I3
sg4
(dp395
g6
F5281408
sg7
F167.72999999999999
sg8
F3259.29
sg9
F960.49000000000001
ssg10
(dp396
g6
F2115424
sg7
F25.129999999999999
sg8
F273.92000000000002
sg9
F553.72000000000003
ssg12
(dp397
g6
F10867824
sg7
F226.52000000000001
sg8
F3825.9899999999998
sg9
F2104.9499999999998
sssI97
(dp398
g3
I3
sg4
(dp399
g6
F5290192
sg7
F113.66
sg8
F3258.1900000000001
sg9
F957.26999999999998
ssg10
(dp400
g6
F1840736
sg7
F29.120000000000001
sg8
F345.91000000000003
sg9
F637.05999999999995
ssg12
(dp401
g6
F10867824
sg7
F211.61000000000001
sg8
F3640.2600000000002
sg9
F2138.02
sssI98
(dp402
g3
I3
sg4
(dp403
g6
F4650912
sg7
F164.34999999999999
sg8
F3121.1100000000001
sg9
F934.78999999999996
ssg10
(dp404
g6
F1691904
sg7
F25.809999999999999
sg8
F293.61000000000001
sg9
F615.70000000000005
ssg12
(dp405
g6
F10859440
sg7
F159.24000000000001
sg8
F2947.6300000000001
sg9
F1749.1300000000001
sssI99
(dp406
g3
I3
sg4
(dp407
g6
F3494784
sg7
F82.469999999999999
sg8
F1942.6400000000001
sg9
F577.26999999999998
ssg10
(dp408
g6
F1099536
sg7
F13.35
sg8
F152.38999999999999
sg9
F296.73000000000002
ssg12
(dp409
g6
F10553776
sg7
F104.73999999999999
sg8
F1919.6700000000001
sg9
F1218.5899999999999
sssI100
(dp410
g3
I3
sg4
(dp411
g6
F18936064
sg7
F115.01000000000001
sg8
F2312.6199999999999
sg9
F687.16999999999996
ssg10
(dp412
g6
F1339312
sg7
F16.039999999999999
sg8
F217.84
sg9
F695
ssg12
(dp413
g6
F10843456
sg7
F156.69
sg8
F2453
sg9
F1608.6300000000001
sssI101
(dp414
g3
I3
sg4
(dp415
g6
F3741216
sg7
F123.45
sg8
F2359.0999999999999
sg9
F689.76999999999998
ssg10
(dp416
g6
F1352400
sg7
F18
sg8
F211.93000000000001
sg9
F718.96000000000004
ssg12
(dp417
g6
F10810384
sg7
F157.59
sg8
F2448.21
sg9
F1580.7
sssI102
(dp418
g3
I3
sg4
(dp419
g6
F3663072
sg7
F115.13
sg8
F2493.8200000000002
sg9
F753.03999999999996
ssg10
(dp420
g6
F1598176
sg7
F11.640000000000001
sg8
F148.31999999999999
sg9
F639.05999999999995
ssg12
(dp421
g6
F10849008
sg7
F144.69999999999999
sg8
F2674.1799999999998
sg9
F1728.0599999999999
sssI103
(dp422
g3
I3
sg4
(dp423
g6
F3650240
sg7
F94.659999999999997
sg8
F2407.0500000000002
sg9
F716.40999999999997
ssg10
(dp424
g6
F1318000
sg7
F17.16
sg8
F204.84999999999999
sg9
F679.05999999999995
ssg12
(dp425
g6
F10826080
sg7
F158.36000000000001
sg8
F2423.2199999999998
sg9
F1587.6500000000001
sssI104
(dp426
g3
I3
sg4
(dp427
g6
F4210672
sg7
F122.83
sg8
F2727.96
sg9
F798.40999999999997
ssg10
(dp428
g6
F1522448
sg7
F21.98
sg8
F251.36000000000001
sg9
F806.28999999999996
ssg12
(dp429
g6
F10808096
sg7
F152
sg8
F2732.5700000000002
sg9
F1748.4300000000001
sssI105
(dp430
g3
I3
sg4
(dp431
g6
F19077456
sg7
F120.92
sg8
F3390.6300000000001
sg9
F991.01999999999998
ssg10
(dp432
g6
F1766624
sg7
F27.789999999999999
sg8
F335.81999999999999
sg9
F886.44000000000005
ssg12
(dp433
g6
F10849280
sg7
F222.91
sg8
F3289.9200000000001
sg9
F2203.1100000000001
sssI106
(dp434
g3
I3
sg4
(dp435
g6
F5140432
sg7
F163.16999999999999
sg8
F3343.2199999999998
sg9
F993.96000000000004
ssg10
(dp436
g6
F1775312
sg7
F27.219999999999999
sg8
F334.77999999999997
sg9
F886.38999999999999
ssg12
(dp437
g6
F10824480
sg7
F225.47
sg8
F3277.6599999999999
sg9
F2192.52
sssI107
(dp438
g3
I3
sg4
(dp439
g6
F4564080
sg7
F173.72
sg8
F3280.1599999999999
sg9
F968.11000000000001
ssg10
(dp440
g6
F2015152
sg7
F21.02
sg8
F246.41
sg9
F739.79999999999995
ssg12
(dp441
g6
F10867120
sg7
F240.56999999999999
sg8
F3365.6100000000001
sg9
F2076.8699999999999
sssI108
(dp442
g3
I3
sg4
(dp443
g6
F5045120
sg7
F113.43000000000001
sg8
F3193.0900000000001
sg9
F920.42999999999995
ssg10
(dp444
g6
F1740464
sg7
F28.390000000000001
sg8
F326.57999999999998
sg9
F852.73000000000002
ssg12
(dp445
g6
F10844288
sg7
F212.97
sg8
F3196.71
sg9
F2053.4099999999999
sssI109
(dp446
g3
I3
sg4
(dp447
g6
F18705856
sg7
F78.480000000000004
sg8
F2122.8299999999999
sg9
F639.63999999999999
ssg10
(dp448
g6
F1173664
sg7
F13.19
sg8
F173.11000000000001
sg9
F523.82000000000005
ssg12
(dp449
g6
F10851152
sg7
F132.52000000000001
sg8
F2118.79
sg9
F1382.26
sssI110
(dp450
g3
I3
sg4
(dp451
g6
F3286928
sg7
F63.579999999999998
sg8
F1167.7
sg9
F357.38
ssg10
(dp452
g6
F1192816
sg7
F9.9100000000000001
sg8
F128.21000000000001
sg9
F439.43000000000001
ssg12
(dp453
g6
F10866880
sg7
F70.959999999999994
sg8
F1396.98
sg9
F933.41999999999996
sssI111
(dp454
g3
I3
sg4
(dp455
g6
F2964288
sg7
F74.209999999999994
sg8
F1097.6600000000001
sg9
F334.75999999999999
ssg10
(dp456
g6
F1417808
sg7
F6.6600000000000001
sg8
F87.859999999999999
sg9
F243.31999999999999
ssg12
(dp457
g6
F10802944
sg7
F72.359999999999999
sg8
F1373.6700000000001
sg9
F798.39999999999998
sssI112
(dp458
g3
I3
sg4
(dp459
g6
F3187328
sg7
F27.690000000000001
sg8
F1138.6199999999999
sg9
F338.19999999999999
ssg10
(dp460
g6
F1149888
sg7
F8.0399999999999991
sg8
F157.16
sg9
F362.27999999999997
ssg12
(dp461
g6
F10825424
sg7
F70.579999999999998
sg8
F1429.78
sg9
F957.63
sssI113
(dp462
g3
I3
sg4
(dp463
g6
F18914176
sg7
F26.170000000000002
sg8
F1357.79
sg9
F409.64999999999998
ssg10
(dp464
g6
F1432656
sg7
F11.6
sg8
F168.78999999999999
sg9
F408.43000000000001
ssg12
(dp465
g6
F10852048
sg7
F93.760000000000005
sg8
F1751.5699999999999
sg9
F1152.1099999999999
sssI114
(dp466
g3
I3
sg4
(dp467
g6
F18897472
sg7
F86.329999999999998
sg8
F1501.9200000000001
sg9
F459.83999999999997
ssg10
(dp468
g6
F1673040
sg7
F8.8800000000000008
sg8
F126.56
sg9
F332.67000000000002
ssg12
(dp469
g6
F10851440
sg7
F95.099999999999994
sg8
F1847.5999999999999
sg9
F1050.1400000000001
sssI115
(dp470
g3
I3
sg4
(dp471
g6
F24386880
sg7
F130.52000000000001
sg8
F1468.79
sg9
F469.81
ssg10
(dp472
g6
F1396976
sg7
F11.43
sg8
F180.25
sg9
F397.63999999999999
ssg12
(dp473
g6
F10843424
sg7
F88.760000000000005
sg8
F1744.8499999999999
sg9
F1095.9200000000001
sssI116
(dp474
g3
I3
sg4
(dp475
g6
F3623488
sg7
F57.829999999999998
sg8
F1385.8900000000001
sg9
F423.44
ssg10
(dp476
g6
F1687296
sg7
F9.2100000000000009
sg8
F120.5
sg9
F309.51999999999998
ssg12
(dp477
g6
F10865008
sg7
F94.450000000000003
sg8
F1790.49
sg9
F1076.96
sssI117
(dp478
g3
I3
sg4
(dp479
g6
F3872368
sg7
F48.259999999999998
sg8
F1314.48
sg9
F397.55000000000001
ssg10
(dp480
g6
F1412208
sg7
F11.039999999999999
sg8
F155.03999999999999
sg9
F401.88999999999999
ssg12
(dp481
g6
F10875104
sg7
F86.200000000000003
sg8
F1698.0699999999999
sg9
F1123.3299999999999
sssI118
(dp482
g3
I3
sg4
(dp483
g6
F3558192
sg7
F77.569999999999993
sg8
F1449.9100000000001
sg9
F431.56
ssg10
(dp484
g6
F1637840
sg7
F8.6400000000000006
sg8
F127.2
sg9
F351.66000000000003
ssg12
(dp485
g6
F10803392
sg7
F92.349999999999994
sg8
F1795.0599999999999
sg9
F1030.5
sssI119
(dp486
g3
I3
sg4
(dp487
g6
F5448416
sg7
F95.829999999999998
sg8
F1857.73
sg9
F572.59000000000003
ssg10
(dp488
g6
F1899680
sg7
F23.140000000000001
sg8
F281.25999999999999
sg9
F899.83000000000004
ssg12
(dp489
g6
F10835888
sg7
F124.66
sg8
F2567.7399999999998
sg9
F1605.3199999999999
sssI120
(dp490
g3
I3
sg4
(dp491
g6
F3601008
sg7
F62.240000000000002
sg8
F1247.25
sg9
F386.83999999999997
ssg10
(dp492
g6
F1309088
sg7
F10.800000000000001
sg8
F149.69
sg9
F410.77999999999997
ssg12
(dp493
g6
F10842640
sg7
F81.849999999999994
sg8
F1833.71
sg9
F1218.3399999999999
sssI121
(dp494
g3
I3
sg4
(dp495
g6
F19136784
sg7
F118.25
sg8
F1650.3699999999999
sg9
F508.38999999999999
ssg10
(dp496
g6
F1549648
sg7
F13.550000000000001
sg8
F206.66999999999999
sg9
F502.41000000000003
ssg12
(dp497
g6
F10842768
sg7
F100.37
sg8
F2210.4400000000001
sg9
F1339.9000000000001
sssI122
(dp498
g3
I3
sg4
(dp499
g6
F4270736
sg7
F118.87
sg8
F2720.8499999999999
sg9
F820.67999999999995
ssg10
(dp500
g6
F1557312
sg7
F20.91
sg8
F284.73000000000002
sg9
F654.41999999999996
ssg12
(dp501
g6
F10834400
sg7
F189.03
sg8
F3222.9699999999998
sg9
F1928.25
sssI123
(dp502
g3
I3
sg4
(dp503
g6
F5161664
sg7
F125.02
sg8
F3137.3400000000001
sg9
F940.61000000000001
ssg10
(dp504
g6
F1797120
sg7
F33.960000000000001
sg8
F335.33999999999997
sg9
F1007.5599999999999
ssg12
(dp505
g6
F10841232
sg7
F220.94
sg8
F3749.2800000000002
sg9
F2318.79
sssI124
(dp506
g3
I3
sg4
(dp507
g6
F4196400
sg7
F35.240000000000002
sg8
F1492.01
sg9
F473.13999999999999
ssg10
(dp508
g6
F1528912
sg7
F12.779999999999999
sg8
F183.93000000000001
sg9
F437.05000000000001
ssg12
(dp509
g6
F10842624
sg7
F97.930000000000007
sg8
F2105.9400000000001
sg9
F1317.02
sssI125
(dp510
g3
I3
sg4
(dp511
g6
F4751696
sg7
F151.97999999999999
sg8
F3111.8800000000001
sg9
F918.70000000000005
ssg10
(dp512
g6
F1728080
sg7
F27.050000000000001
sg8
F315.75
sg9
F1051.8299999999999
ssg12
(dp513
g6
F10826960
sg7
F209.25999999999999
sg8
F3575.1100000000001
sg9
F2171.04
sssI126
(dp514
g3
I3
sg4
(dp515
g6
F19295376
sg7
F149.96000000000001
sg8
F3659.98
sg9
F1098.5
ssg10
(dp516
g6
F1974432
sg7
F35.759999999999998
sg8
F402.37
sg9
F1198.0899999999999
ssg12
(dp517
g6
F10981328
sg7
F258.25
sg8
F4048.5799999999999
sg9
F2563.77
sssI127
(dp518
g3
I3
sg4
(dp519
g6
F5668608
sg7
F223.47
sg8
F3732.0999999999999
sg9
F1121.1500000000001
ssg10
(dp520
g6
F1986304
sg7
F35.609999999999999
sg8
F385.24000000000001
sg9
F1193.3699999999999
ssg12
(dp521
g6
F10949456
sg7
F248.99000000000001
sg8
F4016.4699999999998
sg9
F2510.23
sssI128
(dp522
g3
I3
sg4
(dp523
g6
F6301984
sg7
F197.34
sg8
F2417.52
sg9
F748.13
ssg10
(dp524
g6
F2216864
sg7
F24.25
sg8
F344.81999999999999
sg9
F825.54999999999995
ssg12
(dp525
g6
F12154016
sg7
F153.25999999999999
sg8
F3108.8299999999999
sg9
F1839.78
sssI129
(dp526
g3
I3
sg4
(dp527
g6
F5604928
sg7
F171.78999999999999
sg8
F3600.6799999999998
sg9
F1083.01
ssg10
(dp528
g6
F1950080
sg7
F34.689999999999998
sg8
F398.20999999999998
sg9
F1122.02
ssg12
(dp529
g6
F10847952
sg7
F250.41
sg8
F3945.04
sg9
F2441.4000000000001
sssI130
(dp530
g3
I3
sg4
(dp531
g6
F18859488
sg7
F116.14
sg8
F2301.1599999999999
sg9
F707.85000000000002
ssg10
(dp532
g6
F1378576
sg7
F17.68
sg8
F228
sg9
F606.78999999999996
ssg12
(dp533
g6
F10810784
sg7
F159.13
sg8
F2862.9299999999998
sg9
F1774.1900000000001
sssI131
(dp534
g3
I3
sg4
(dp535
g6
F4012848
sg7
F54.030000000000001
sg8
F1341.3299999999999
sg9
F406.02999999999997
ssg10
(dp536
g6
F1393088
sg7
F11.289999999999999
sg8
F162.84999999999999
sg9
F380.27999999999997
ssg12
(dp537
g6
F10827152
sg7
F86.189999999999998
sg8
F1919.1700000000001
sg9
F1260.25
sssI132
(dp538
g3
I3
sg4
(dp539
g6
F5185824
sg7
F125.58
sg8
F3051.8899999999999
sg9
F894.25999999999999
ssg10
(dp540
g6
F1623824
sg7
F24.030000000000001
sg8
F288.47000000000003
sg9
F885.67999999999995
ssg12
(dp541
g6
F10826960
sg7
F196.99000000000001
sg8
F3337.3400000000001
sg9
F2218.2199999999998
sssI133
(dp542
g3
I3
sg4
(dp543
g6
F3749456
sg7
F101.84
sg8
F2327.1300000000001
sg9
F688.74000000000001
ssg10
(dp544
g6
F1348064
sg7
F17.489999999999998
sg8
F217.87
sg9
F785.75
ssg12
(dp545
g6
F10826368
sg7
F159.02000000000001
sg8
F2748.21
sg9
F1757.5799999999999
sssI134
(dp546
g3
I3
sg4
(dp547
g6
F19083472
sg7
F134.72
sg8
F3075.3400000000001
sg9
F920.99000000000001
ssg10
(dp548
g6
F1640592
sg7
F27.34
sg8
F291.39999999999998
sg9
F945.04999999999995
ssg12
(dp549
g6
F10816192
sg7
F180.09
sg8
F3266.5799999999999
sg9
F2168.0599999999999
sssI135
(dp550
g3
I3
sg4
(dp551
g6
F19227040
sg7
F54.299999999999997
sg8
F1887.0999999999999
sg9
F570.26999999999998
ssg10
(dp552
g6
F1878608
sg7
F18.609999999999999
sg8
F252.91999999999999
sg9
F673.88999999999999
ssg12
(dp553
g6
F10859504
sg7
F127.13
sg8
F2555.7800000000002
sg9
F1605.7
sssI136
(dp554
g3
I3
sg4
(dp555
g6
F21722320
sg7
F116.51000000000001
sg8
F1695.76
sg9
F542.42999999999995
ssg10
(dp556
g6
F1603216
sg7
F14.43
sg8
F220.47
sg9
F552.20000000000005
ssg12
(dp557
g6
F10808448
sg7
F103.62
sg8
F2256.3800000000001
sg9
F1408.8099999999999
sssI137
(dp558
g3
I3
sg4
(dp559
g6
F5364736
sg7
F63.520000000000003
sg8
F1815.6700000000001
sg9
F547.46000000000004
ssg10
(dp560
g6
F1884944
sg7
F23.41
sg8
F268.51999999999998
sg9
F926.82000000000005
ssg12
(dp561
g6
F10859408
sg7
F125.62
sg8
F2527.7600000000002
sg9
F1665.5699999999999
sssI138
(dp562
g3
I3
sg4
(dp563
g6
F4394000
sg7
F96.060000000000002
sg8
F1574.5799999999999
sg9
F489.05000000000001
ssg10
(dp564
g6
F1610128
sg7
F14.18
sg8
F195.36000000000001
sg9
F547.13
ssg12
(dp565
g6
F10848672
sg7
F102.66
sg8
F2203
sg9
F1393.8900000000001
sssI139
(dp566
g3
I3
sg4
(dp567
g6
F5281888
sg7
F65.609999999999999
sg8
F1819.0599999999999
sg9
F556.05999999999995
ssg10
(dp568
g6
F1842272
sg7
F17.829999999999998
sg8
F246.74000000000001
sg9
F592.59000000000003
ssg12
(dp569
g6
F10851216
sg7
F125.29000000000001
sg8
F2507.4200000000001
sg9
F1547.8599999999999
sssI140
(dp570
g3
I3
sg4
(dp571
g6
F4077424
sg7
F69
sg8
F2092.9299999999998
sg9
F609.82000000000005
ssg10
(dp572
g6
F1199824
sg7
F14.52
sg8
F176.69
sg9
F516.32000000000005
ssg12
(dp573
g6
F10859472
sg7
F136.44999999999999
sg8
F2156.4000000000001
sg9
F1413.27
sssI141
(dp574
g3
I3
sg4
(dp575
g6
F18968096
sg7
F104.75
sg8
F1477.8499999999999
sg9
F463.56
ssg10
(dp576
g6
F1446192
sg7
F12.380000000000001
sg8
F179.22999999999999
sg9
F421.14999999999998
ssg12
(dp577
g6
F10842880
sg7
F91.489999999999995
sg8
F1797.8699999999999
sg9
F1122.6800000000001
sssI142
(dp578
g3
I3
sg4
(dp579
g6
F4263248
sg7
F110.81
sg8
F1482.3499999999999
sg9
F451.99000000000001
ssg10
(dp580
g6
F1457120
sg7
F12.09
sg8
F173.46000000000001
sg9
F461.61000000000001
ssg12
(dp581
g6
F10859120
sg7
F92.310000000000002
sg8
F1855.45
sg9
F1165.6900000000001
sssI143
(dp582
g3
I3
sg4
(dp583
g6
F4643408
sg7
F18.370000000000001
sg8
F1664.4400000000001
sg9
F493.93000000000001
ssg10
(dp584
g6
F1690688
sg7
F15.82
sg8
F209.5
sg9
F583.60000000000002
ssg12
(dp585
g6
F10860496
sg7
F108.38
sg8
F2067.02
sg9
F1334.51
sssI144
(dp586
g3
I3
sg4
(dp587
g6
F4243968
sg7
F90.219999999999999
sg8
F2404.27
sg9
F699.04999999999995
ssg10
(dp588
g6
F1417824
sg7
F19.600000000000001
sg8
F236.19
sg9
F593.07000000000005
ssg12
(dp589
g6
F10867136
sg7
F165.72
sg8
F2583.7600000000002
sg9
F1719.6500000000001
sssI145
(dp590
g3
I3
sg4
(dp591
g6
F18642048
sg7
F75.030000000000001
sg8
F1475.0799999999999
sg9
F451.35000000000002
ssg10
(dp592
g6
F851136
sg7
F7.9900000000000002
sg8
F110.78
sg9
F302.38
ssg12
(dp593
g6
F8490176
sg7
F71.920000000000002
sg8
F1430.28
sg9
F1047.4400000000001
sssI146
(dp594
g3
I3
sg4
(dp595
g6
F2513568
sg7
F56.829999999999998
sg8
F1517.45
sg9
F445.88
ssg10
(dp596
g6
F859712
sg7
F8.4600000000000009
sg8
F108.51000000000001
sg9
F382.24000000000001
ssg12
(dp597
g6
F8522624
sg7
F91.349999999999994
sg8
F1593.8399999999999
sg9
F1148.53
sssI147
(dp598
g3
I3
sg4
(dp599
g6
F3057072
sg7
F62.57
sg8
F1966.03
sg9
F578.95000000000005
ssg10
(dp600
g6
F1099520
sg7
F11.25
sg8
F155.34999999999999
sg9
F404.74000000000001
ssg12
(dp601
g6
F10545520
sg7
F126.09
sg8
F1960.5599999999999
sg9
F1355.52
sssI148
(dp602
g3
I3
sg4
(dp603
g6
F3004320
sg7
F58.380000000000003
sg8
F1427.6400000000001
sg9
F418.47000000000003
ssg10
(dp604
g6
F824848
sg7
F6.8799999999999999
sg8
F102.23
sg9
F352.23000000000002
ssg12
(dp605
g6
F7919600
sg7
F89.400000000000006
sg8
F1484.2
sg9
F1084.28
sssI149
(dp606
g3
I3
sg4
(dp607
g6
F18557120
sg7
F37.460000000000001
sg8
F1092.3599999999999
sg9
F346.44999999999999
ssg10
(dp608
g6
F1119008
sg7
F7.7800000000000002
sg8
F113.31999999999999
sg9
F338.81
ssg12
(dp609
g6
F10562464
sg7
F67.709999999999994
sg8
F1310.6700000000001
sg9
F904.74000000000001
sssI150
(dp610
g3
I3
sg4
(dp611
g6
F18878592
sg7
F130.68000000000001
sg8
F2425.4000000000001
sg9
F740.13999999999999
ssg10
(dp612
g6
F1339328
sg7
F15.720000000000001
sg8
F232.22999999999999
sg9
F529.17999999999995
ssg12
(dp613
g6
F10843728
sg7
F146.69
sg8
F2363.1500000000001
sg9
F1620.01
sssI151
(dp614
g3
I3
sg4
(dp615
g6
F24551584
sg7
F96.620000000000005
sg8
F2061.4299999999998
sg9
F633.38
ssg10
(dp616
g6
F1069488
sg7
F11.34
sg8
F171.03999999999999
sg9
F435.02999999999997
ssg12
(dp617
g6
F10491856
sg7
F100.56999999999999
sg8
F1805.26
sg9
F1250.46
sssI152
(dp618
g3
I3
sg4
(dp619
g6
F3724800
sg7
F144.88
sg8
F2232.5900000000001
sg9
F671.26999999999998
ssg10
(dp620
g6
F1360576
sg7
F18.02
sg8
F229.93000000000001
sg9
F534.58000000000004
ssg12
(dp621
g6
F10827040
sg7
F139.36000000000001
sg8
F2372.1799999999998
sg9
F1638.28
sssI153
(dp622
g3
I3
sg4
(dp623
g6
F3011632
sg7
F41.060000000000002
sg8
F1032.21
sg9
F318.58999999999997
ssg10
(dp624
g6
F1082928
sg7
F8.8399999999999999
sg8
F112.91
sg9
F427.00999999999999
ssg12
(dp625
g6
F10524400
sg7
F66.439999999999998
sg8
F1274.2
sg9
F894.22000000000003
sssI154
(dp626
g3
I3
sg4
(dp627
g6
F3641504
sg7
F56.380000000000003
sg8
F2224.25
sg9
F647
ssg10
(dp628
g6
F1317552
sg7
F15.58
sg8
F236.53
sg9
F530.46000000000004
ssg12
(dp629
g6
F10826032
sg7
F133.5
sg8
F2280.9099999999999
sg9
F1554.5799999999999
sssI155
(dp630
g3
I3
sg4
(dp631
g6
F9942192
sg7
F31.640000000000001
sg8
F1204.9100000000001
sg9
F381.88999999999999
ssg10
(dp632
g6
F1278624
sg7
F9.8599999999999994
sg8
F139.66
sg9
F356.05000000000001
ssg12
(dp633
g6
F10816816
sg7
F78.840000000000003
sg8
F1517.3699999999999
sg9
F1014.29
sssI156
(dp634
g3
I3
sg4
(dp635
g6
F3559632
sg7
F44.770000000000003
sg8
F1268.22
sg9
F375.11000000000001
ssg10
(dp636
g6
F1291408
sg7
F9.9800000000000004
sg8
F152.81
sg9
F396.25999999999999
ssg12
(dp637
g6
F10841072
sg7
F80.510000000000005
sg8
F1642.3099999999999
sg9
F1074.22
sssI157
(dp638
g3
I3
sg4
(dp639
g6
F4209984
sg7
F69.489999999999995
sg8
F1531.74
sg9
F458.29000000000002
ssg10
(dp640
g6
F1528112
sg7
F16.719999999999999
sg8
F217.61000000000001
sg9
F488.43000000000001
ssg12
(dp641
g6
F10851664
sg7
F101.61
sg8
F1986.0699999999999
sg9
F1256.27
sssI158
(dp642
g3
I3
sg4
(dp643
g6
F3495920
sg7
F76.469999999999999
sg8
F2093.6999999999998
sg9
F620.19000000000005
ssg10
(dp644
g6
F1247792
sg7
F13.99
sg8
F191.62
sg9
F540.59000000000003
ssg12
(dp645
g6
F10840448
sg7
F142.13999999999999
sg8
F2260.4099999999999
sg9
F1478.8199999999999
sssI159
(dp646
g3
I3
sg4
(dp647
g6
F18927984
sg7
F102.25
sg8
F1527.6700000000001
sg9
F484.49000000000001
ssg10
(dp648
g6
F1533168
sg7
F12.949999999999999
sg8
F179.49000000000001
sg9
F496.44999999999999
ssg12
(dp649
g6
F10825584
sg7
F100.05
sg8
F1874.79
sg9
F1221.55
sssI160
(dp650
g3
I3
sg4
(dp651
g6
F19236176
sg7
F181.11000000000001
sg8
F3206.71
sg9
F971.58000000000004
ssg10
(dp652
g6
F1770944
sg7
F40.259999999999998
sg8
F335.83999999999997
sg9
F983.59000000000003
ssg12
(dp653
g6
F10825984
sg7
F208.65000000000001
sg8
F3258.2199999999998
sg9
F1988.71
sssI161
(dp654
g3
I3
sg4
(dp655
g6
F18959664
sg7
F71.760000000000005
sg8
F1481.8800000000001
sg9
F478.80000000000001
ssg10
(dp656
g6
F1499472
sg7
F15.4
sg8
F196.31999999999999
sg9
F647.85000000000002
ssg12
(dp657
g6
F10826048
sg7
F93.670000000000002
sg8
F1760.1500000000001
sg9
F1187
sssI162
(dp658
g3
I3
sg4
(dp659
g6
F5117584
sg7
F149.62
sg8
F3274.0700000000002
sg9
F961.44000000000005
ssg10
(dp660
g6
F1781280
sg7
F25.949999999999999
sg8
F346.75999999999999
sg9
F946.37
ssg12
(dp661
g6
F10850032
sg7
F202.88999999999999
sg8
F3234.98
sg9
F2097.25
sssI163
(dp662
g3
I3
sg4
(dp663
g6
F4156624
sg7
F96.849999999999994
sg8
F2600.7800000000002
sg9
F777.80999999999995
ssg10
(dp664
g6
F1505104
sg7
F21.02
sg8
F241.65000000000001
sg9
F638.27999999999997
ssg12
(dp665
g6
F10850144
sg7
F174.88999999999999
sg8
F2741.46
sg9
F1770.9300000000001
sssI164
(dp666
g3
I3
sg4
(dp667
g6
F5051200
sg7
F66.170000000000002
sg8
F1708.8099999999999
sg9
F518.85000000000002
ssg10
(dp668
g6
F1732560
sg7
F16.399999999999999
sg8
F217.58000000000001
sg9
F588.67999999999995
ssg12
(dp669
g6
F10816352
sg7
F113.38
sg8
F2123.9200000000001
sg9
F1380.75
sssI165
(dp670
g3
I3
sg4
(dp671
g6
F18651360
sg7
F76.659999999999997
sg8
F1569.5599999999999
sg9
F487.36000000000001
ssg10
(dp672
g6
F938208
sg7
F12.01
sg8
F125.14
sg9
F417.22000000000003
ssg12
(dp673
g6
F9180688
sg7
F92.609999999999999
sg8
F1624.72
sg9
F1176.27
sssI166
(dp674
g3
I3
sg4
(dp675
g6
F18672320
sg7
F106.91
sg8
F2118.8699999999999
sg9
F643.78999999999996
ssg10
(dp676
g6
F1173680
sg7
F18.52
sg8
F172.16999999999999
sg9
F571.87
ssg12
(dp677
g6
F10826464
sg7
F128.41
sg8
F2108.8600000000001
sg9
F1477.4100000000001
sssI167
(dp678
g3
I3
sg4
(dp679
g6
F22328720
sg7
F87.290000000000006
sg8
F1595.6099999999999
sg9
F500.94999999999999
ssg10
(dp680
g6
F898976
sg7
F12.08
sg8
F135.15000000000001
sg9
F335.36000000000001
ssg12
(dp681
g6
F8589904
sg7
F93.930000000000007
sg8
F1543.4400000000001
sg9
F1122.3099999999999
sssI168
(dp682
g3
I3
sg4
(dp683
g6
F3283296
sg7
F12.970000000000001
sg8
F1158.5
sg9
F348.51999999999998
ssg10
(dp684
g6
F1192416
sg7
F8.7599999999999998
sg8
F123.48
sg9
F319.48000000000002
ssg12
(dp685
g6
F10825824
sg7
F73.099999999999994
sg8
F1425.22
sg9
F1023.37
sssI169
(dp686
g3
I3
sg4
(dp687
g6
F2560608
sg7
F52.039999999999999
sg8
F1480.8499999999999
sg9
F440.94
ssg10
(dp688
g6
F920224
sg7
F8.3399999999999999
sg8
F114.63
sg9
F395.62
ssg12
(dp689
g6
F9130304
sg7
F87.150000000000006
sg8
F1555.04
sg9
F1173.55
sssI170
(dp690
g3
I3
sg4
(dp691
g6
F3209776
sg7
F116.83
sg8
F1888.8900000000001
sg9
F573.39999999999998
ssg10
(dp692
g6
F1143136
sg7
F11.92
sg8
F172.68000000000001
sg9
F489.69999999999999
ssg12
(dp693
g6
F10809024
sg7
F106.8
sg8
F2015.7
sg9
F1439.8
sssI171
(dp694
g3
I3
sg4
(dp695
g6
F18893904
sg7
F136.08000000000001
sg8
F2502.5799999999999
sg9
F771.92999999999995
ssg10
(dp696
g6
F1426528
sg7
F17.32
sg8
F263.67000000000002
sg9
F563.02999999999997
ssg12
(dp697
g6
F10866112
sg7
F154
sg8
F2498.5500000000002
sg9
F1779.5999999999999
sssI172
(dp698
g3
I3
sg4
(dp699
g6
F32344816
sg7
F104.93000000000001
sg8
F1310.5799999999999
sg9
F417.88
ssg10
(dp700
g6
F1158960
sg7
F10.029999999999999
sg8
F153.16999999999999
sg9
F352.63999999999999
ssg12
(dp701
g6
F10858608
sg7
F77.170000000000002
sg8
F1505.4400000000001
sg9
F1013.62
sssI173
(dp702
g3
I3
sg4
(dp703
g6
F23663200
sg7
F74.420000000000002
sg8
F1466.9000000000001
sg9
F456.38
ssg10
(dp704
g6
F1386560
sg7
F13.289999999999999
sg8
F201.40000000000001
sg9
F436.10000000000002
ssg12
(dp705
g6
F10827040
sg7
F93.349999999999994
sg8
F1828.3599999999999
sg9
F1185.05
sssI174
(dp706
g3
I3
sg4
(dp707
g6
F3847328
sg7
F61.109999999999999
sg8
F1305.47
sg9
F399.87
ssg10
(dp708
g6
F1411728
sg7
F11.380000000000001
sg8
F155.96000000000001
sg9
F418.81999999999999
ssg12
(dp709
g6
F10842320
sg7
F90.140000000000001
sg8
F1705.48
sg9
F1134.52
sssI175
(dp710
g3
I4
sg4
(dp711
g6
F26321520
sg7
F114.65000000000001
sg8
F2511.8299999999999
sg9
F778.75999999999999
ssg10
(dp712
g6
F2640112
sg7
F40.390000000000001
sg8
F474.75999999999999
sg9
F1841.5
ssg12
(dp713
g6
F14357552
sg7
F195.78
sg8
F3589.0500000000002
sg9
F2187.7199999999998
sssI176
(dp714
g3
I4
sg4
(dp715
g6
F26371072
sg7
F274.24000000000001
sg8
F5637.9099999999999
sg9
F1668.8399999999999
ssg10
(dp716
g6
F3061552
sg7
F71.5
sg8
F817.75
sg9
F2422.9000000000001
ssg12
(dp717
g6
F16723552
sg7
F414.13
sg8
F6339.8699999999999
sg9
F3852.3400000000001
sssI177
(dp718
g3
I4
sg4
(dp719
g6
F25956000
sg7
F176.34
sg8
F4435.46
sg9
F1312.0899999999999
ssg10
(dp720
g6
F2476736
sg7
F50.710000000000001
sg8
F564.97000000000003
sg9
F1594.97
ssg12
(dp721
g6
F13383424
sg7
F364.88999999999999
sg8
F5245.0699999999997
sg9
F2980.1100000000001
sssI178
(dp722
g3
I4
sg4
(dp723
g6
F31491056
sg7
F123.93000000000001
sg8
F2700.8600000000001
sg9
F834.13999999999999
ssg10
(dp724
g6
F2717968
sg7
F35.299999999999997
sg8
F455.94999999999999
sg9
F1230.26
ssg12
(dp725
g6
F14813744
sg7
F207.18000000000001
sg8
F3749.96
sg9
F2247.2600000000002
sssI179
(dp726
g3
I4
sg4
(dp727
g6
F14553680
sg7
F49.490000000000002
sg8
F2628.9499999999998
sg9
F802.70000000000005
ssg10
(dp728
g6
F2737120
sg7
F35.43
sg8
F449.99000000000001
sg9
F1267.1500000000001
ssg12
(dp729
g6
F14802384
sg7
F206.16999999999999
sg8
F3755.9200000000001
sg9
F2244.0599999999999
sssI180
(dp730
g3
I4
sg4
(dp731
g6
F14466544
sg7
F234.47999999999999
sg8
F4891.5900000000001
sg9
F1475.1400000000001
ssg10
(dp732
g6
F2961264
sg7
F49.450000000000003
sg8
F531.20000000000005
sg9
F1889.3
ssg12
(dp733
g6
F13592032
sg7
F395.51999999999998
sg8
F5808.71
sg9
F3396.9099999999999
sssI181
(dp734
g3
I4
sg4
(dp735
g6
F26359760
sg7
F217.69
sg8
F4868.5699999999997
sg9
F1444.78
ssg10
(dp736
g6
F2686592
sg7
F61.590000000000003
sg8
F634.07000000000005
sg9
F1989.9000000000001
ssg12
(dp737
g6
F14608272
sg7
F366.44
sg8
F5527.8699999999999
sg9
F3325.4400000000001
sssI182
(dp738
g3
I4
sg4
(dp739
g6
F14375152
sg7
F182.71000000000001
sg8
F2617.3699999999999
sg9
F817.26999999999998
ssg10
(dp740
g6
F2545728
sg7
F35.759999999999998
sg8
F471.38
sg9
F1105.3099999999999
ssg12
(dp741
g6
F13877472
sg7
F184.09
sg8
F3481.4200000000001
sg9
F2093.1500000000001
sssI183
(dp742
g3
I4
sg4
(dp743
g6
F25605184
sg7
F159.81999999999999
sg8
F3536.6700000000001
sg9
F1071.48
ssg10
(dp744
g6
F1941008
sg7
F33.490000000000002
sg8
F371.99000000000001
sg9
F1075.76
ssg12
(dp745
g6
F10867712
sg7
F249.99000000000001
sg8
F3731.1100000000001
sg9
F2317.4099999999999
sssI184
(dp746
g3
I4
sg4
(dp747
g6
F22415440
sg7
F247.13
sg8
F4286.1999999999998
sg9
F1314.3299999999999
ssg10
(dp748
g6
F2195136
sg7
F45.789999999999999
sg8
F436.38
sg9
F1579.1199999999999
ssg12
(dp749
g6
F12030320
sg7
F292.18000000000001
sg8
F4249.1599999999999
sg9
F2605.7600000000002
sssI185
(dp750
g3
I4
sg4
(dp751
g6
F19998096
sg7
F172.24000000000001
sg8
F4138.5200000000004
sg9
F1232.8299999999999
ssg10
(dp752
g6
F2202624
sg7
F44.130000000000003
sg8
F446.73000000000002
sg9
F1529.6500000000001
ssg12
(dp753
g6
F12019232
sg7
F300.82999999999998
sg8
F4220.6199999999999
sg9
F2689.54
sssI186
(dp754
g3
I4
sg4
(dp755
g6
F25978160
sg7
F225.59
sg8
F3988.8200000000002
sg9
F1215.2
ssg10
(dp756
g6
F2429328
sg7
F33.729999999999997
sg8
F355.82999999999998
sg9
F1340.55
ssg12
(dp757
g6
F10986800
sg7
F288.58999999999997
sg8
F4302.29
sg9
F2655.5
sssI187
(dp758
g3
I4
sg4
(dp759
g6
F19874176
sg7
F218.69
sg8
F4181.29
sg9
F1258.0899999999999
ssg10
(dp760
g6
F2159024
sg7
F47.07
sg8
F428.95999999999998
sg9
F1496.0699999999999
ssg12
(dp761
g6
F11878480
sg7
F281.85000000000002
sg8
F4002.9200000000001
sg9
F2639.8899999999999
sssI188
(dp762
g3
I4
sg4
(dp763
g6
F14139168
sg7
F148.38
sg8
F2478.4299999999998
sg9
F790.26999999999998
ssg10
(dp764
g6
F2371536
sg7
F32.759999999999998
sg8
F407.44999999999999
sg9
F1001.0700000000001
ssg12
(dp765
g6
F12921616
sg7
F166.81
sg8
F3191.8800000000001
sg9
F2022.97
sssI189
(dp766
g3
I4
sg4
(dp767
g6
F31506128
sg7
F52.619999999999997
sg8
F2543.9299999999998
sg9
F777.13999999999999
ssg10
(dp768
g6
F2613584
sg7
F31.57
sg8
F424.81
sg9
F1093.71
ssg12
(dp769
g6
F14314912
sg7
F197.05000000000001
sg8
F3364.1100000000001
sg9
F2154.4099999999999
sssI190
(dp770
g3
I4
sg4
(dp771
g6
F20448688
sg7
F121.34
sg8
F4632.6499999999996
sg9
F1375.0799999999999
ssg10
(dp772
g6
F2625536
sg7
F57.049999999999997
sg8
F605.37
sg9
F1695.6700000000001
ssg12
(dp773
g6
F14269936
sg7
F320.62
sg8
F4873.0299999999997
sg9
F3211.0500000000002
sssI191
(dp774
g3
I4
sg4
(dp775
g6
F14409904
sg7
F108.33
sg8
F2708.0599999999999
sg9
F833.88
ssg10
(dp776
g6
F2867728
sg7
F25.129999999999999
sg8
F345.67000000000002
sg9
F1074.6300000000001
ssg12
(dp777
g6
F13130816
sg7
F198.93000000000001
sg8
F3438.5700000000002
sg9
F2088.5599999999999
sssI192
(dp778
g3
I4
sg4
(dp779
g6
F20065488
sg7
F162.63999999999999
sg8
F2533.6700000000001
sg9
F788.75999999999999
ssg10
(dp780
g6
F2593200
sg7
F31.420000000000002
sg8
F419.61000000000001
sg9
F1201.0699999999999
ssg12
(dp781
g6
F14136864
sg7
F191.81
sg8
F3310.4699999999998
sg9
F2073.7399999999998
sssI193
(dp782
g3
I4
sg4
(dp783
g6
F28753456
sg7
F88.390000000000001
sg8
F2022.52
sg9
F627.05999999999995
ssg10
(dp784
g6
F2016832
sg7
F25.34
sg8
F304.10000000000002
sg9
F1068.6300000000001
ssg12
(dp785
g6
F11193008
sg7
F137.56999999999999
sg8
F2480.3200000000002
sg9
F1604.6700000000001
sssI194
(dp786
g3
I4
sg4
(dp787
g6
F13998000
sg7
F126.3
sg8
F2169.25
sg9
F676.48000000000002
ssg10
(dp788
g6
F2039552
sg7
F21.350000000000001
sg8
F291.14999999999998
sg9
F750.25
ssg12
(dp789
g6
F11163152
sg7
F139.71000000000001
sg8
F2670.1300000000001
sg9
F1635.1400000000001
sssI195
(dp790
g3
I4
sg4
(dp791
g6
F19771456
sg7
F128.88
sg8
F2115.8200000000002
sg9
F653.99000000000001
ssg10
(dp792
g6
F2266032
sg7
F16.190000000000001
sg8
F372.43000000000001
sg9
F824.05999999999995
ssg12
(dp793
g6
F10933744
sg7
F141.18000000000001
sg8
F2648.02
sg9
F1511.0899999999999
sssI196
(dp794
g3
I4
sg4
(dp795
g6
F13930976
sg7
F54.729999999999997
sg8
F2018.47
sg9
F625.28999999999996
ssg10
(dp796
g6
F1995472
sg7
F19.43
sg8
F270.79000000000002
sg9
F802.32000000000005
ssg12
(dp797
g6
F11022848
sg7
F136.72
sg8
F2475.9499999999998
sg9
F1603.7
sssI197
(dp798
g3
I4
sg4
(dp799
g6
F25293456
sg7
F206.61000000000001
sg8
F4319.1899999999996
sg9
F1278.9200000000001
ssg10
(dp800
g6
F2276736
sg7
F41.789999999999999
sg8
F501.41000000000003
sg9
F1038.76
ssg12
(dp801
g6
F12422096
sg7
F306.07999999999998
sg8
F4469.4799999999996
sg9
F2656.6399999999999
sssI198
(dp802
g3
I4
sg4
(dp803
g6
F25227504
sg7
F230.28999999999999
sg8
F4128.8599999999997
sg9
F1243.3399999999999
ssg10
(dp804
g6
F2507808
sg7
F35.710000000000001
sg8
F390.56999999999999
sg9
F1240.1500000000001
ssg12
(dp805
g6
F11372160
sg7
F301.14999999999998
sg8
F4494.2399999999998
sg9
F2532.8400000000001
sssI199
(dp806
g3
I4
sg4
(dp807
g6
F25407904
sg7
F235.19999999999999
sg8
F4201.1400000000003
sg9
F1298.6400000000001
ssg10
(dp808
g6
F2233152
sg7
F46.909999999999997
sg8
F487.61000000000001
sg9
F1482.8499999999999
ssg12
(dp809
g6
F12262688
sg7
F314.73000000000002
sg8
F4335.1400000000003
sg9
F2672.2800000000002
sssI200
(dp810
g3
I4
sg4
(dp811
g6
F19945648
sg7
F260.56
sg8
F4059.73
sg9
F1249.3
ssg10
(dp812
g6
F2518160
sg7
F35.170000000000002
sg8
F373.22000000000003
sg9
F1488
ssg12
(dp813
g6
F11362528
sg7
F328.63
sg8
F4654.6599999999999
sg9
F2840.2600000000002
sssI201
(dp814
g3
I4
sg4
(dp815
g6
F20046960
sg7
F217.94999999999999
sg8
F4281.5600000000004
sg9
F1285.03
ssg10
(dp816
g6
F2246240
sg7
F41.869999999999997
sg8
F466.16000000000003
sg9
F1507.27
ssg12
(dp817
g6
F12264384
sg7
F309.07999999999998
sg8
F4416.6400000000003
sg9
F2757.2600000000002
sssI202
(dp818
g3
I4
sg4
(dp819
g6
F25772144
sg7
F175.53999999999999
sg8
F4152.8199999999997
sg9
F1226.76
ssg10
(dp820
g6
F2481680
sg7
F35.759999999999998
sg8
F366.12
sg9
F1313.97
ssg12
(dp821
g6
F11221088
sg7
F320.55000000000001
sg8
F4417.0100000000002
sg9
F2588.6700000000001
sssI203
(dp822
g3
I4
sg4
(dp823
g6
F20455824
sg7
F278.66000000000003
sg8
F5042.5699999999997
sg9
F1505.2
ssg10
(dp824
g6
F2739408
sg7
F61.43
sg8
F703.39999999999998
sg9
F1829.52
ssg12
(dp825
g6
F14978784
sg7
F369.68000000000001
sg8
F5611.54
sg9
F3518.3899999999999
sssI204
(dp826
g3
I4
sg4
(dp827
g6
F25756688
sg7
F168.75999999999999
sg8
F4156.8999999999996
sg9
F1246.6900000000001
ssg10
(dp828
g6
F2145936
sg7
F35.18
sg8
F433.08999999999997
sg9
F1473.5599999999999
ssg12
(dp829
g6
F11765856
sg7
F286.76999999999998
sg8
F4352.9099999999999
sg9
F2687.5599999999999
sssI205
(dp830
g3
I4
sg4
(dp831
g6
F25459472
sg7
F192.33000000000001
sg8
F4197.1499999999996
sg9
F1269.96
ssg10
(dp832
g6
F2406064
sg7
F47.520000000000003
sg8
F567.11000000000001
sg9
F1544.0899999999999
ssg12
(dp833
g6
F13038160
sg7
F284.19
sg8
F4786.9499999999998
sg9
F3129.6900000000001
sssI206
(dp834
g3
I4
sg4
(dp835
g6
F20192944
sg7
F160.50999999999999
sg8
F4482.2700000000004
sg9
F1320.1600000000001
ssg10
(dp836
g6
F2414768
sg7
F44.990000000000002
sg8
F573.72000000000003
sg9
F1547.48
ssg12
(dp837
g6
F13018528
sg7
F290.93000000000001
sg8
F4792.9499999999998
sg9
F3085.8499999999999
sssI207
(dp838
g3
I4
sg4
(dp839
g6
F26320864
sg7
F108.19
sg8
F2699.5700000000002
sg9
F805.58000000000004
ssg10
(dp840
g6
F2639344
sg7
F33.75
sg8
F457.76999999999998
sg9
F1226.6600000000001
ssg12
(dp841
g6
F14336656
sg7
F181.36000000000001
sg8
F3696.9000000000001
sg9
F2211.3800000000001
sssI208
(dp842
g3
I4
sg4
(dp843
g6
F14162288
sg7
F118.17
sg8
F2458.4899999999998
sg9
F751.42999999999995
ssg10
(dp844
g6
F2366272
sg7
F27.760000000000002
sg8
F374.24000000000001
sg9
F1030.4400000000001
ssg12
(dp845
g6
F12901952
sg7
F159.03999999999999
sg8
F3356.5
sg9
F2066.79
sssI209
(dp846
g3
I4
sg4
(dp847
g6
F26270736
sg7
F90.209999999999994
sg8
F2414.7199999999998
sg9
F737.84000000000003
ssg10
(dp848
g6
F2576688
sg7
F38.890000000000001
sg8
F447.87
sg9
F1917.0799999999999
ssg12
(dp849
g6
F14020944
sg7
F184.49000000000001
sg8
F3452.8699999999999
sg9
F2109.5500000000002
sssI210
(dp850
g3
I4
sg4
(dp851
g6
F28336864
sg7
F80.180000000000007
sg8
F2818.6399999999999
sg9
F867.10000000000002
ssg10
(dp852
g6
F2818176
sg7
F36.159999999999997
sg8
F484.20999999999998
sg9
F1444.0899999999999
ssg12
(dp853
g6
F15397104
sg7
F218.86000000000001
sg8
F3882.9899999999998
sg9
F2366.4899999999998
sssI211
(dp854
g3
I4
sg4
(dp855
g6
F20364288
sg7
F187.16999999999999
sg8
F2857.0100000000002
sg9
F889.94000000000005
ssg10
(dp856
g6
F2835168
sg7
F37.189999999999998
sg8
F474.74000000000001
sg9
F1463.8399999999999
ssg12
(dp857
g6
F15376112
sg7
F218.09999999999999
sg8
F3906.46
sg9
F2362.5900000000001
sssI212
(dp858
g3
I4
sg4
(dp859
g6
F14669232
sg7
F155.02000000000001
sg8
F3126.5999999999999
sg9
F961.87
ssg10
(dp860
g6
F3065456
sg7
F41.670000000000002
sg8
F552.03999999999996
sg9
F1503.26
ssg12
(dp861
g6
F16726032
sg7
F232.38
sg8
F4201.9899999999998
sg9
F2563.79
sssI213
(dp862
g3
I4
sg4
(dp863
g6
F14434144
sg7
F250.62
sg8
F5012.0799999999999
sg9
F1508.45
ssg10
(dp864
g6
F2791472
sg7
F61.259999999999998
sg8
F668.87
sg9
F3614.9099999999999
ssg12
(dp865
g6
F15226720
sg7
F377.56999999999999
sg8
F5875.3199999999997
sg9
F3480.0700000000002
sssI214
(dp866
g3
I4
sg4
(dp867
g6
F25389744
sg7
F190.47999999999999
sg8
F4002.5100000000002
sg9
F1216.79
ssg10
(dp868
g6
F2220304
sg7
F40.93
sg8
F477.04000000000002
sg9
F1633.3099999999999
ssg12
(dp869
g6
F12167856
sg7
F280.25999999999999
sg8
F4697.5
sg9
F2748.8699999999999
sssI215
(dp870
g3
I4
sg4
(dp871
g6
F19931536
sg7
F209.09999999999999
sg8
F4077.1700000000001
sg9
F1235.01
ssg10
(dp872
g6
F2237824
sg7
F40.329999999999998
sg8
F486.68000000000001
sg9
F1836.49
ssg12
(dp873
g6
F12160112
sg7
F302.57999999999998
sg8
F4672.5699999999997
sg9
F2733.6399999999999
sssI216
(dp874
g3
I4
sg4
(dp875
g6
F20260896
sg7
F175.99000000000001
sg8
F2557.6100000000001
sg9
F791.80999999999995
ssg10
(dp876
g6
F2470224
sg7
F30.989999999999998
sg8
F407.30000000000001
sg9
F963.40999999999997
ssg12
(dp877
g6
F13409392
sg7
F173.38
sg8
F3477.21
sg9
F1999.95
sssI217
(dp878
g3
I4
sg4
(dp879
g6
F20036688
sg7
F217.83000000000001
sg8
F4057.8299999999999
sg9
F1216.8399999999999
ssg10
(dp880
g6
F2195824
sg7
F38.280000000000001
sg8
F456.12
sg9
F2442.1300000000001
ssg12
(dp881
g6
F12042576
sg7
F300.45999999999998
sg8
F4646.7200000000003
sg9
F2845.7399999999998
sssI218
(dp882
g3
I4
sg4
(dp883
g6
F34810704
sg7
F102.27
sg8
F2523.29
sg9
F773.74000000000001
ssg10
(dp884
g6
F2482080
sg7
F29.75
sg8
F407.19
sg9
F1111.5799999999999
ssg12
(dp885
g6
F13463520
sg7
F168.97
sg8
F3479.4200000000001
sg9
F1965.76
sssI219
(dp886
g3
I4
sg4
(dp887
g6
F25466304
sg7
F213.06
sg8
F4802.0100000000002
sg9
F1444.95
ssg10
(dp888
g6
F2720576
sg7
F57.530000000000001
sg8
F636.91999999999996
sg9
F3210.23
ssg12
(dp889
g6
F14775328
sg7
F349.12
sg8
F5539.4099999999999
sg9
F4117.9499999999998
sssI220
(dp890
g3
I4
sg4
(dp891
g6
F29660880
sg7
F263.97000000000003
sg8
F4269.0699999999997
sg9
F1314.46
ssg10
(dp892
g6
F2440224
sg7
F49.200000000000003
sg8
F540.52999999999997
sg9
F2587.23
ssg12
(dp893
g6
F13273696
sg7
F316.56999999999999
sg8
F4980.0799999999999
sg9
F3432.21
sssI221
(dp894
g3
I4
sg4
(dp895
g6
F20454128
sg7
F92.129999999999995
sg8
F2594.8600000000001
sg9
F794.72000000000003
ssg10
(dp896
g6
F2728240
sg7
F42.630000000000003
sg8
F492.05000000000001
sg9
F2561.3600000000001
ssg12
(dp897
g6
F14837312
sg7
F203.37
sg8
F3695.6700000000001
sg9
F2289.0799999999999
sssI222
(dp898
g3
I4
sg4
(dp899
g6
F20076224
sg7
F243.00999999999999
sg8
F4303.6599999999999
sg9
F1309.6099999999999
ssg10
(dp900
g6
F2457984
sg7
F49.140000000000001
sg8
F526.45000000000005
sg9
F2456.0900000000001
ssg12
(dp901
g6
F13278432
sg7
F297.57999999999998
sg8
F4959.9300000000003
sg9
F3799.2199999999998
sssI223
(dp902
g3
I4
sg4
(dp903
g6
F14377488
sg7
F60.399999999999999
sg8
F2610.27
sg9
F793.96000000000004
ssg10
(dp904
g6
F2688288
sg7
F33.280000000000001
sg8
F445.13999999999999
sg9
F1668.9300000000001
ssg12
(dp905
g6
F14631696
sg7
F203.71000000000001
sg8
F3699.7399999999998
sg9
F2259.73
sssI224
(dp906
g3
I4
sg4
(dp907
g6
F21327776
sg7
F95.349999999999994
sg8
F2091.0100000000002
sg9
F635.50999999999999
ssg10
(dp908
g6
F2049808
sg7
F20.890000000000001
sg8
F282.27999999999997
sg9
F799.05999999999995
ssg12
(dp909
g6
F11336032
sg7
F141.78999999999999
sg8
F2578.6900000000001
sg9
F1631.6700000000001
sssI225
(dp910
g3
I4
sg4
(dp911
g6
F34673680
sg7
F245.36000000000001
sg8
F4225.7600000000002
sg9
F1280.26
ssg10
(dp912
g6
F2289824
sg7
F46.549999999999997
sg8
F472.47000000000003
sg9
F2608.8400000000001
ssg12
(dp913
g6
F12581328
sg7
F284.38999999999999
sg8
F4209.1499999999996
sg9
F3746.54
sssI226
(dp914
g3
I4
sg4
(dp915
g6
F14916928
sg7
F183.63999999999999
sg8
F4085
sg9
F1241.3099999999999
ssg10
(dp916
g6
F2298544
sg7
F41.420000000000002
sg8
F486.73000000000002
sg9
F2792.1500000000001
ssg12
(dp917
g6
F12564896
sg7
F294.07999999999998
sg8
F4301.1700000000001
sg9
F3820.1399999999999
sssI227
(dp918
g3
I4
sg4
(dp919
g6
F14215728
sg7
F81.230000000000004
sg8
F2419.3699999999999
sg9
F765.69000000000005
ssg10
(dp920
g6
F2535792
sg7
F33.909999999999997
sg8
F476.88999999999999
sg9
F2129.5900000000001
ssg12
(dp921
g6
F13852720
sg7
F185.44999999999999
sg8
F3247.0500000000002
sg9
F2065.4899999999998
sssI228
(dp922
g3
I4
sg4
(dp923
g6
F14166976
sg7
F191.91999999999999
sg8
F4135.6499999999996
sg9
F1247.8
ssg10
(dp924
g6
F2254928
sg7
F42.640000000000001
sg8
F472.69
sg9
F2690.0799999999999
ssg12
(dp925
g6
F12421696
sg7
F288.25999999999999
sg8
F4172.6899999999996
sg9
F3701.79
sssI229
(dp926
g3
I4
sg4
(dp927
g6
F22570608
sg7
F142.03999999999999
sg8
F1847.1900000000001
sg9
F628.12
ssg10
(dp928
g6
F1699376
sg7
F14.949999999999999
sg8
F220.99000000000001
sg9
F1062.5799999999999
ssg12
(dp929
g6
F10875872
sg7
F111.95999999999999
sg8
F2184.5300000000002
sg9
F2031.6700000000001
sssI230
(dp930
g3
I4
sg4
(dp931
g6
F14777232
sg7
F30.260000000000002
sg8
F1692.3199999999999
sg9
F600.78999999999996
ssg10
(dp932
g6
F1716448
sg7
F17.59
sg8
F239.25999999999999
sg9
F1184.9300000000001
ssg12
(dp933
g6
F10875728
sg7
F119.77
sg8
F2241.5700000000002
sg9
F2082.9299999999998
sssI231
(dp934
g3
I4
sg4
(dp935
g6
F13876512
sg7
F76.629999999999995
sg8
F2072.6900000000001
sg9
F674.34000000000003
ssg10
(dp936
g6
F1947920
sg7
F18.920000000000002
sg8
F278.98000000000002
sg9
F1008.01
ssg12
(dp937
g6
F10875760
sg7
F129.81
sg8
F2475.25
sg9
F2353.4099999999999
sssI232
(dp938
g3
I4
sg4
(dp939
g6
F19527584
sg7
F28.079999999999998
sg8
F1652.3099999999999
sg9
F541.79999999999995
ssg10
(dp940
g6
F1667424
sg7
F16.800000000000001
sg8
F233.19
sg9
F699.85000000000002
ssg12
(dp941
g6
F10875696
sg7
F111.58
sg8
F2068.0300000000002
sg9
F2048.5599999999999
sssI233
(dp942
g3
I4
sg4
(dp943
g6
F25200912
sg7
F68.620000000000005
sg8
F2008.8
sg9
F692.92999999999995
ssg10
(dp944
g6
F1954656
sg7
F21.190000000000001
sg8
F290.31
sg9
F909.66999999999996
ssg12
(dp945
g6
F10875872
sg7
F137.41
sg8
F2581.9099999999999
sg9
F2176.96
sssI234
(dp946
g3
I4
sg4
(dp947
g6
F31193184
sg7
F132.62
sg8
F2197.4299999999998
sg9
F770.05999999999995
ssg10
(dp948
g6
F2187680
sg7
F29.710000000000001
sg8
F340.72000000000003
sg9
F1513.8900000000001
ssg12
(dp949
g6
F12058048
sg7
F147.19999999999999
sg8
F2680.6599999999999
sg9
F2207.8899999999999
sssI235
(dp950
g3
I4
sg4
(dp951
g6
F24846688
sg7
F174.5
sg8
F3673.9299999999998
sg9
F1154.8800000000001
ssg10
(dp952
g6
F1917568
sg7
F30.640000000000001
sg8
F377.35000000000002
sg9
F2407.8600000000001
ssg12
(dp953
g6
F10875920
sg7
F250.09
sg8
F3640.0300000000002
sg9
F2766.29
sssI236
(dp954
g3
I4
sg4
(dp955
g6
F19799840
sg7
F236.97999999999999
sg8
F4307.6999999999998
sg9
F1362.0599999999999
ssg10
(dp956
g6
F2209056
sg7
F42.850000000000001
sg8
F439.01999999999998
sg9
F2939.9699999999998
ssg12
(dp957
g6
F12012064
sg7
F275.86000000000001
sg8
F4139.1000000000004
sg9
F3448.73
sssI237
(dp958
g3
I4
sg4
(dp959
g6
F19832208
sg7
F176.66999999999999
sg8
F3613.6999999999998
sg9
F1122.6400000000001
ssg10
(dp960
g6
F1928528
sg7
F33.030000000000001
sg8
F358.77999999999997
sg9
F2412.9400000000001
ssg12
(dp961
g6
F10875776
sg7
F236.49000000000001
sg8
F3649.5700000000002
sg9
F3249
sssI238
(dp962
g3
I4
sg4
(dp963
g6
F25377728
sg7
F88.390000000000001
sg8
F2349.6199999999999
sg9
F740.52999999999997
ssg10
(dp964
g6
F2159552
sg7
F22.140000000000001
sg8
F323.58999999999997
sg9
F1096.75
ssg12
(dp965
g6
F11875872
sg7
F146.44
sg8
F2827.2199999999998
sg9
F2166.5599999999999
sssI239
(dp966
g3
I4
sg4
(dp967
g6
F22425840
sg7
F188.40000000000001
sg8
F4213.4700000000003
sg9
F1303.5
ssg10
(dp968
g6
F2122608
sg7
F37.130000000000003
sg8
F414.56999999999999
sg9
F2882.52
ssg12
(dp969
g6
F11709664
sg7
F270.67000000000002
sg8
F4057.1700000000001
sg9
F3587.3099999999999
sssI240
(dp970
g3
I4
sg4
(dp971
g6
F14044320
sg7
F192.46000000000001
sg8
F3987.5900000000001
sg9
F1245.79
ssg10
(dp972
g6
F2140400
sg7
F36.880000000000003
sg8
F407.42000000000002
sg9
F2991
ssg12
(dp973
g6
F11731248
sg7
F251.19
sg8
F3969.79
sg9
F3450.1799999999998
sssI241
(dp974
g3
I4
sg4
(dp975
g6
F14110096
sg7
F203.94999999999999
sg8
F4112.5
sg9
F1289.4000000000001
ssg10
(dp976
g6
F2366640
sg7
F47.75
sg8
F492.94
sg9
F2979.2800000000002
ssg12
(dp977
g6
F12916640
sg7
F294.36000000000001
sg8
F4464.6599999999999
sg9
F3891.5599999999999
sssI242
(dp978
g3
I4
sg4
(dp979
g6
F13892416
sg7
F81.530000000000001
sg8
F2150.4299999999998
sg9
F693.83000000000004
ssg10
(dp980
g6
F2090560
sg7
F23.440000000000001
sg8
F323.44999999999999
sg9
F1505.0599999999999
ssg12
(dp981
g6
F11579632
sg7
F158.72
sg8
F2742.4899999999998
sg9
F2250.2199999999998
sssI243
(dp982
g3
I4
sg4
(dp983
g6
F25417072
sg7
F215.21000000000001
sg8
F4241.9300000000003
sg9
F1351.79
ssg10
(dp984
g6
F2384576
sg7
F42.469999999999999
sg8
F498.48000000000002
sg9
F2991.52
ssg12
(dp985
g6
F12973760
sg7
F284.63
sg8
F4431.9899999999998
sg9
F3786.4200000000001
sssI244
(dp986
g3
I4
sg4
(dp987
g6
F34888128
sg7
F225.55000000000001
sg8
F4805.8599999999997
sg9
F1497.6600000000001
ssg10
(dp988
g6
F2606144
sg7
F52.990000000000002
sg8
F611.95000000000005
sg9
F3159.3200000000002
ssg12
(dp989
g6
F14268192
sg7
F289.44
sg8
F4737.5200000000004
sg9
F4405.7399999999998
sssI245
(dp990
g3
I4
sg4
(dp991
g6
F41258080
sg7
F257.73000000000002
sg8
F4483.3699999999999
sg9
F1413.02
ssg10
(dp992
g6
F2337648
sg7
F43.530000000000001
sg8
F503.43000000000001
sg9
F2851.3200000000002
ssg12
(dp993
g6
F12806416
sg7
F281.12
sg8
F4296.0100000000002
sg9
F4255.0100000000002
sssI246
(dp994
g3
I4
sg4
(dp995
g6
F20357216
sg7
F104.48
sg8
F2628.04
sg9
F861.69000000000005
ssg10
(dp996
g6
F2624800
sg7
F30.93
sg8
F428.74000000000001
sg9
F1832.02
ssg12
(dp997
g6
F14298704
sg7
F189.33000000000001
sg8
F3461.3800000000001
sg9
F2722
sssI247
(dp998
g3
I4
sg4
(dp999
g6
F14213856
sg7
F137.91
sg8
F4221.0299999999997
sg9
F1298.3399999999999
ssg10
(dp1000
g6
F2345776
sg7
F43.130000000000003
sg8
F478.92000000000002
sg9
F2869.6500000000001
ssg12
(dp1001
g6
F12815504
sg7
F272.76999999999998
sg8
F4320.1599999999999
sg9
F4125.7299999999996
sssI248
(dp1002
g3
I4
sg4
(dp1003
g6
F20343184
sg7
F73.390000000000001
sg8
F2552.6300000000001
sg9
F842.17999999999995
ssg10
(dp1004
g6
F2581904
sg7
F33.700000000000003
sg8
F445.12
sg9
F1799.78
ssg12
(dp1005
g6
F14108976
sg7
F200.94
sg8
F3425.0300000000002
sg9
F2814.4099999999999
sssI249
(dp1006
g3
I4
sg4
(dp1007
g6
F25254752
sg7
F86
sg8
F1810.8900000000001
sg9
F606.09000000000003
ssg10
(dp1008
g6
F1784224
sg7
F15.449999999999999
sg8
F224.68000000000001
sg9
F1372.2
ssg12
(dp1009
g6
F10868576
sg7
F123.95
sg8
F2237.6500000000001
sg9
F2127
sssI250
(dp1010
g3
I4
sg4
(dp1011
g6
F22678704
sg7
F125.68000000000001
sg8
F2021.3499999999999
sg9
F683.02999999999997
ssg10
(dp1012
g6
F2017056
sg7
F26.460000000000001
sg8
F297.81999999999999
sg9
F1535.01
ssg12
(dp1013
g6
F11160576
sg7
F135.43000000000001
sg8
F2514.8899999999999
sg9
F2807.7800000000002
sssI251
(dp1014
g3
I4
sg4
(dp1015
g6
F32058464
sg7
F128.37
sg8
F1873.52
sg9
F631.40999999999997
ssg10
(dp1016
g6
F1741680
sg7
F15.49
sg8
F246.94999999999999
sg9
F906.23000000000002
ssg12
(dp1017
g6
F10868608
sg7
F117.19
sg8
F2259.1100000000001
sg9
F1971.9300000000001
sssI252
(dp1018
g3
I4
sg4
(dp1019
g6
F13991488
sg7
F104.76000000000001
sg8
F2049.4099999999999
sg9
F712.25999999999999
ssg10
(dp1020
g6
F2031856
sg7
F20.43
sg8
F276.83999999999997
sg9
F1093.1900000000001
ssg12
(dp1021
g6
F11175248
sg7
F137.86000000000001
sg8
F2560.2800000000002
sg9
F2318.9899999999998
sssI253
(dp1022
g3
I4
sg4
(dp1023
g6
F19562496
sg7
F132.37
sg8
F1838
sg9
F646.38
ssg10
(dp1024
g6
F1754928
sg7
F18.09
sg8
F229.25
sg9
F827.33000000000004
ssg12
(dp1025
g6
F10892880
sg7
F114.01000000000001
sg8
F2238.3800000000001
sg9
F1930.9000000000001
sssI254
(dp1026
g3
I4
sg4
(dp1027
g6
F24510800
sg7
F57.240000000000002
sg8
F1971.45
sg9
F677.33000000000004
ssg10
(dp1028
g6
F1995472
sg7
F18.719999999999999
sg8
F269.66000000000003
sg9
F1149.3099999999999
ssg12
(dp1029
g6
F10991264
sg7
F137.58000000000001
sg8
F2474.5999999999999
sg9
F2210.5900000000001
sssI255
(dp1030
g3
I4
sg4
(dp1031
g6
F25414112
sg7
F135.03999999999999
sg8
F2418.48
sg9
F838.22000000000003
ssg10
(dp1032
g6
F2275040
sg7
F24.510000000000002
sg8
F335.64999999999998
sg9
F1098.23
ssg12
(dp1033
g6
F12422368
sg7
F157.25
sg8
F2867.73
sg9
F2395.02
sssI256
(dp1034
g3
I4
sg4
(dp1035
g6
F22329904
sg7
F101.73999999999999
sg8
F2018.6600000000001
sg9
F699.61000000000001
ssg10
(dp1036
g6
F2008544
sg7
F26.399999999999999
sg8
F294.75999999999999
sg9
F1236.5999999999999
ssg12
(dp1037
g6
F11044208
sg7
F136.31
sg8
F2429.1500000000001
sg9
F2290.2800000000002
sssI257
(dp1038
g3
I4
sg4
(dp1039
g6
F25370368
sg7
F235.59999999999999
sg8
F4274.0500000000002
sg9
F1376.25
ssg10
(dp1040
g6
F2233152
sg7
F38.979999999999997
sg8
F469.35000000000002
sg9
F2788.5700000000002
ssg12
(dp1041
g6
F12252832
sg7
F270.58999999999997
sg8
F4196.2700000000004
sg9
F3192.1999999999998
sssI258
(dp1042
g3
I4
sg4
(dp1043
g6
F20063792
sg7
F217.52000000000001
sg8
F4285.1700000000001
sg9
F1336.5899999999999
ssg10
(dp1044
g6
F2249712
sg7
F38.289999999999999
sg8
F452.61000000000001
sg9
F2956.1799999999998
ssg12
(dp1045
g6
F12262368
sg7
F260.38
sg8
F4242.25
sg9
F3584.8400000000001
sssI259
(dp1046
g3
I4
sg4
(dp1047
g6
F7089456
sg7
F228.25
sg8
F4483.96
sg9
F1417.6800000000001
ssg10
(dp1048
g6
F2516640
sg7
F54.659999999999997
sg8
F552.89999999999998
sg9
F3628.4899999999998
ssg12
(dp1049
g6
F13708752
sg7
F346.04000000000002
sg8
F5106.9200000000001
sg9
F4116.8100000000004
sssI260
(dp1050
g3
I4
sg4
(dp1051
g6
F5524464
sg7
F138.25999999999999
sg8
F3410.3299999999999
sg9
F1042.4300000000001
ssg10
(dp1052
g6
F1935856
sg7
F30.469999999999999
sg8
F370.52999999999997
sg9
F2520.9299999999998
ssg12
(dp1053
g6
F10868112
sg7
F236.16999999999999
sg8
F4034.6900000000001
sg9
F3363.8200000000002
sssI261
(dp1054
g3
I4
sg4
(dp1055
g6
F19593488
sg7
F218.93000000000001
sg8
F4166.6300000000001
sg9
F1295.29
ssg10
(dp1056
g6
F2167728
sg7
F36.829999999999998
sg8
F444.31
sg9
F3247.3600000000001
ssg12
(dp1057
g6
F11915328
sg7
F275.30000000000001
sg8
F4438.8500000000004
sg9
F3992.8099999999999
sssI262
(dp1058
g3
I4
sg4
(dp1059
g6
F6179440
sg7
F151.77000000000001
sg8
F3956.5799999999999
sg9
F1213.3099999999999
ssg10
(dp1060
g6
F2191568
sg7
F38.18
sg8
F442.49000000000001
sg9
F3143.3400000000001
ssg12
(dp1061
g6
F11897248
sg7
F273.10000000000002
sg8
F4437.4399999999996
sg9
F4029.4699999999998
sssI263
(dp1062
g3
I4
sg4
(dp1063
g6
F5858816
sg7
F188.62
sg8
F3965.6100000000001
sg9
F1224.76
ssg10
(dp1064
g6
F2420640
sg7
F32.200000000000003
sg8
F356.04000000000002
sg9
F2715.6199999999999
ssg12
(dp1065
g6
F10933072
sg7
F298.93000000000001
sg8
F4625.2200000000003
sg9
F3799.3099999999999
sssI264
(dp1066
g3
I4
sg4
(dp1067
g6
F6102576
sg7
F220.44999999999999
sg8
F3930.9699999999998
sg9
F1228.1800000000001
ssg10
(dp1068
g6
F2148608
sg7
F38
sg8
F444.86000000000001
sg9
F3157.1300000000001
ssg12
(dp1069
g6
F11755824
sg7
F265.92000000000002
sg8
F4356.8400000000001
sg9
F3682.5500000000002
sssI265
(dp1070
g3
I4
sg4
(dp1071
g6
F6648192
sg7
F77.469999999999999
sg8
F2417.8000000000002
sg9
F771.24000000000001
ssg10
(dp1072
g6
F2351504
sg7
F26.309999999999999
sg8
F382.39999999999998
sg9
F1371.9200000000001
ssg12
(dp1073
g6
F12839600
sg7
F161.11000000000001
sg8
F3322.7800000000002
sg9
F2400.9699999999998
sssI266
(dp1074
g3
I4
sg4
(dp1075
g6
F19938080
sg7
F183.74000000000001
sg8
F4772.6599999999999
sg9
F1462.78
ssg10
(dp1076
g6
F2598768
sg7
F54.149999999999999
sg8
F592.25
sg9
F3235.1100000000001
ssg12
(dp1077
g6
F14147216
sg7
F314.51999999999998
sg8
F5123.2399999999998
sg9
F4396.1400000000003
sssI267
(dp1078
g3
I4
sg4
(dp1079
g6
F7305024
sg7
F231.53999999999999
sg8
F4497.0699999999997
sg9
F1401.8
ssg10
(dp1080
g6
F2608080
sg7
F52.090000000000003
sg8
F598.29999999999995
sg9
F3046.21
ssg12
(dp1081
g6
F14137232
sg7
F312.64999999999998
sg8
F5138.8699999999999
sg9
F4332.75
sssI268
(dp1082
g3
I4
sg4
(dp1083
g6
F7021728
sg7
F181.38999999999999
sg8
F2893.1100000000001
sg9
F921.83000000000004
ssg10
(dp1084
g6
F2850704
sg7
F25.809999999999999
sg8
F357.62
sg9
F1718.05
ssg12
(dp1085
g6
F13041328
sg7
F189.27000000000001
sg8
F3801.8600000000001
sg9
F2950.6100000000001
sssI269
(dp1086
g3
I4
sg4
(dp1087
g6
F7238000
sg7
F100.03
sg8
F2492.5799999999999
sg9
F775.86000000000001
ssg10
(dp1088
g6
F2573536
sg7
F29.670000000000002
sg8
F409
sg9
F2106.6900000000001
ssg12
(dp1089
g6
F14010176
sg7
F190.80000000000001
sg8
F3521.71
sg9
F2904.3600000000001
sssI270
(dp1090
g3
I4
sg4
(dp1091
g6
F19337344
sg7
F101.69
sg8
F2043.53
sg9
F697.65999999999997
ssg10
(dp1092
g6
F2002560
sg7
F19.350000000000001
sg8
F278.27999999999997
sg9
F1682.51
ssg12
(dp1093
g6
F11053936
sg7
F141.78
sg8
F2747.4200000000001
sg9
F2499
sssI271
(dp1094
g3
I4
sg4
(dp1095
g6
F5728192
sg7
F74.489999999999995
sg8
F2008.02
sg9
F641.66999999999996
ssg10
(dp1096
g6
F2021904
sg7
F19.710000000000001
sg8
F277.81
sg9
F1289.47
ssg12
(dp1097
g6
F11049968
sg7
F142.71000000000001
sg8
F2762.6700000000001
sg9
F2437.3299999999999
sssI272
(dp1098
g3
I4
sg4
(dp1099
g6
F5413616
sg7
F89.760000000000005
sg8
F1908.29
sg9
F623.39999999999998
ssg10
(dp1100
g6
F2255456
sg7
F20.199999999999999
sg8
F231.37
sg9
F1303.76
ssg12
(dp1101
g6
F10907552
sg7
F142.49000000000001
sg8
F2773.29
sg9
F2863.8600000000001
sssI273
(dp1102
g3
I4
sg4
(dp1103
g6
F5646768
sg7
F121.95
sg8
F2100.52
sg9
F708.64999999999998
ssg10
(dp1104
g6
F1978512
sg7
F19.870000000000001
sg8
F288.49000000000001
sg9
F818.64999999999998
ssg12
(dp1105
g6
F10895968
sg7
F134.18000000000001
sg8
F2792.1900000000001
sg9
F2122.6399999999999
sssI274
(dp1106
g3
I4
sg4
(dp1107
g6
F19638416
sg7
F134.77000000000001
sg8
F2346.6100000000001
sg9
F812.13
ssg10
(dp1108
g6
F2268144
sg7
F23.940000000000001
sg8
F492.35000000000002
sg9
F1695.73
ssg12
(dp1109
g6
F12303312
sg7
F161.5
sg8
F3085.3400000000001
sg9
F2348.3699999999999
sssI275
(dp1110
g3
I4
sg4
(dp1111
g6
F19647568
sg7
F105.70999999999999
sg8
F2439.98
sg9
F815.33000000000004
ssg10
(dp1112
g6
F2495184
sg7
F19.52
sg8
F288.25
sg9
F1153
ssg12
(dp1113
g6
F11270848
sg7
F161.40000000000001
sg8
F3247.5599999999999
sg9
F2413.1799999999998
sssI276
(dp1114
g3
I4
sg4
(dp1115
g6
F25165968
sg7
F149.24000000000001
sg8
F2345.3499999999999
sg9
F828.04999999999995
ssg10
(dp1116
g6
F2227328
sg7
F22.600000000000001
sg8
F337.20999999999998
sg9
F1411.23
ssg12
(dp1117
g6
F12178592
sg7
F158.12
sg8
F3000.02
sg9
F2280.23
sssI277
(dp1118
g3
I4
sg4
(dp1119
g6
F6083200
sg7
F91.519999999999996
sg8
F2264.6300000000001
sg9
F731.40999999999997
ssg10
(dp1120
g6
F2514752
sg7
F18.379999999999999
sg8
F270.87
sg9
F1416.5
ssg12
(dp1121
g6
F11270656
sg7
F161.00999999999999
sg8
F3094.5900000000001
sg9
F2119.3600000000001
sssI278
(dp1122
g3
I4
sg4
(dp1123
g6
F6314992
sg7
F89.689999999999998
sg8
F2230.0799999999999
sg9
F748.27999999999997
ssg10
(dp1124
g6
F2234544
sg7
F31.800000000000001
sg8
F346.43000000000001
sg9
F1635.24
ssg12
(dp1125
g6
F12183296
sg7
F157.74000000000001
sg8
F3013.8099999999999
sg9
F2545.0900000000001
sssI279
(dp1126
g3
I4
sg4
(dp1127
g6
F6010720
sg7
F198.83000000000001
sg8
F4198.3100000000004
sg9
F1324.1099999999999
ssg10
(dp1128
g6
F2472656
sg7
F30.940000000000001
sg8
F359.77999999999997
sg9
F2391.4899999999998
ssg12
(dp1129
g6
F11135472
sg7
F284.08999999999997
sg8
F4485.7299999999996
sg9
F3346.9299999999998
sssI280
(dp1130
g3
I4
sg4
(dp1131
g6
F5704880
sg7
F118.13
sg8
F3253.2399999999998
sg9
F997.01999999999998
ssg10
(dp1132
g6
F1835184
sg7
F27.32
sg8
F327.50999999999999
sg9
F1685.1099999999999
ssg12
(dp1133
g6
F10859360
sg7
F216.83000000000001
sg8
F3384.6399999999999
sg9
F3030.52
sssI281
(dp1134
g3
I4
sg4
(dp1135
g6
F19464320
sg7
F147.69999999999999
sg8
F3938.6599999999999
sg9
F1202.8
ssg10
(dp1136
g6
F2079088
sg7
F35.649999999999999
sg8
F405.83999999999997
sg9
F2161.7800000000002
ssg12
(dp1137
g6
F11477232
sg7
F237.81
sg8
F3768.48
sg9
F3191.48
sssI282
(dp1138
g3
I4
sg4
(dp1139
g6
F5928768
sg7
F266.73000000000002
sg8
F3814.6500000000001
sg9
F1226.8399999999999
ssg10
(dp1140
g6
F2085488
sg7
F37.670000000000002
sg8
F398.35000000000002
sg9
F2148.0300000000002
ssg12
(dp1141
g6
F11437840
sg7
F238.16
sg8
F3843.8200000000002
sg9
F3233.8800000000001
sssI283
(dp1142
g3
I4
sg4
(dp1143
g6
F5614368
sg7
F161.12
sg8
F3703.27
sg9
F1135.6800000000001
ssg10
(dp1144
g6
F2316544
sg7
F27.260000000000002
sg8
F306.72000000000003
sg9
F2386.0799999999999
ssg12
(dp1145
g6
F10905856
sg7
F248.06
sg8
F3876.5500000000002
sg9
F3260.5700000000002
sssI284
(dp1146
g3
I4
sg4
(dp1147
g6
F5856576
sg7
F167.59999999999999
sg8
F3948.2800000000002
sg9
F1187.1900000000001
ssg10
(dp1148
g6
F2037184
sg7
F34.32
sg8
F398.48000000000002
sg9
F2397.3400000000001
ssg12
(dp1149
g6
F11296416
sg7
F247.28
sg8
F3794.3699999999999
sg9
F3313.4299999999998
sssI285
(dp1150
g3
I4
sg4
(dp1151
g6
F18919376
sg7
F97.409999999999997
sg8
F2712.5300000000002
sg9
F846.33000000000004
ssg10
(dp1152
g6
F1479488
sg7
F22.260000000000002
sg8
F235.05000000000001
sg9
F1353.9100000000001
ssg12
(dp1153
g6
F10827184
sg7
F160.05000000000001
sg8
F2698.6399999999999
sg9
F2512.1399999999999
sssI286
(dp1154
g3
I4
sg4
(dp1155
g6
F4067552
sg7
F170.19999999999999
sg8
F2623.2600000000002
sg9
F811.90999999999997
ssg10
(dp1156
g6
F1491920
sg7
F18.940000000000001
sg8
F232.36000000000001
sg9
F1317.8800000000001
ssg12
(dp1157
g6
F10827008
sg7
F152.74000000000001
sg8
F2691.1199999999999
sg9
F2622.1300000000001
sssI287
(dp1158
g3
I4
sg4
(dp1159
g6
F3753808
sg7
F173.47999999999999
sg8
F2623.8499999999999
sg9
F843.12
ssg10
(dp1160
g6
F1724336
sg7
F15.42
sg8
F171.05000000000001
sg9
F1329.6199999999999
ssg12
(dp1161
g6
F10866320
sg7
F141.31
sg8
F2600.48
sg9
F2488.0599999999999
sssI288
(dp1162
g3
I4
sg4
(dp1163
g6
F4009664
sg7
F151.78
sg8
F2358.1100000000001
sg9
F797.04999999999995
ssg10
(dp1164
g6
F1448624
sg7
F18.989999999999998
sg8
F223.91
sg9
F1410.77
ssg12
(dp1165
g6
F10835232
sg7
F164.25999999999999
sg8
F2622.77
sg9
F2665.9000000000001
sssI289
(dp1166
g3
I4
sg4
(dp1167
g6
F19200464
sg7
F91.640000000000001
sg8
F1828.45
sg9
F606.12
ssg10
(dp1168
g6
F1731952
sg7
F15.99
sg8
F226.72999999999999
sg9
F935.07000000000005
ssg12
(dp1169
g6
F10843456
sg7
F109.63
sg8
F2191.9200000000001
sg9
F1841.1199999999999
sssI290
(dp1170
g3
I4
sg4
(dp1171
g6
F19069280
sg7
F119.04000000000001
sg8
F1789.52
sg9
F585.87
ssg10
(dp1172
g6
F1964448
sg7
F11.710000000000001
sg8
F170.90000000000001
sg9
F812.76999999999998
ssg12
(dp1173
g6
F10851344
sg7
F114.86
sg8
F2256.4499999999998
sg9
F1877.0899999999999
sssI291
(dp1174
g3
I4
sg4
(dp1175
g6
F28659408
sg7
F80.189999999999998
sg8
F1720.3699999999999
sg9
F592.19000000000005
ssg10
(dp1176
g6
F1699520
sg7
F14.19
sg8
F218.30000000000001
sg9
F1006.35
ssg12
(dp1177
g6
F10843440
sg7
F114.84
sg8
F2084
sg9
F1883.5
sssI292
(dp1178
g3
I4
sg4
(dp1179
g6
F4428816
sg7
F70.989999999999995
sg8
F1648.6300000000001
sg9
F531.76999999999998
ssg10
(dp1180
g6
F1977072
sg7
F11.619999999999999
sg8
F162.38
sg9
F905.44000000000005
ssg12
(dp1181
g6
F10888192
sg7
F122.2
sg8
F2206.73
sg9
F2099.23
sssI293
(dp1182
g3
I4
sg4
(dp1183
g6
F4669040
sg7
F58.859999999999999
sg8
F1689.28
sg9
F542.95000000000005
ssg10
(dp1184
g6
F1714736
sg7
F16.850000000000001
sg8
F211.47
sg9
F827.88
ssg12
(dp1185
g6
F10842416
sg7
F114.25
sg8
F2129.3299999999999
sg9
F2142.73
sssI294
(dp1186
g3
I4
sg4
(dp1187
g6
F4362752
sg7
F63.490000000000002
sg8
F1565.79
sg9
F526.42999999999995
ssg10
(dp1188
g6
F1952384
sg7
F14.390000000000001
sg8
F162.94999999999999
sg9
F649.12
ssg12
(dp1189
g6
F10876768
sg7
F113.36
sg8
F2088.4699999999998
sg9
F1710.52
sssI295
(dp1190
g3
I4
sg4
(dp1191
g6
F19221744
sg7
F128.87
sg8
F1981.0999999999999
sg9
F672.59000000000003
ssg10
(dp1192
g6
F1909792
sg7
F20.09
sg8
F265.52999999999997
sg9
F919.55999999999995
ssg12
(dp1193
g6
F10859824
sg7
F129.43000000000001
sg8
F2417.7600000000002
sg9
F1740.72
sssI296
(dp1194
g3
I4
sg4
(dp1195
g6
F5476288
sg7
F143.84999999999999
sg8
F3435.1999999999998
sg9
F1035.25
ssg10
(dp1196
g6
F1919120
sg7
F32.909999999999997
sg8
F350.86000000000001
sg9
F1887.75
ssg12
(dp1197
g6
F10842752
sg7
F224.52000000000001
sg8
F3551.0900000000001
sg9
F2780.1100000000001
sssI297
(dp1198
g3
I4
sg4
(dp1199
g6
F4905232
sg7
F159.96000000000001
sg8
F2017.1900000000001
sg9
F647.58000000000004
ssg10
(dp1200
g6
F2149824
sg7
F14.050000000000001
sg8
F204.72999999999999
sg9
F914.77999999999997
ssg12
(dp1201
g6
F10842016
sg7
F135.19
sg8
F2519.4000000000001
sg9
F1699.8800000000001
sssI298
(dp1202
g3
I4
sg4
(dp1203
g6
F5395664
sg7
F129.33000000000001
sg8
F3385.4299999999998
sg9
F1053.0999999999999
ssg10
(dp1204
g6
F1876256
sg7
F30
sg8
F340.39999999999998
sg9
F1813.99
ssg12
(dp1205
g6
F10826320
sg7
F197.25
sg8
F3411.7199999999998
sg9
F2988.6399999999999
sssI299
(dp1206
g3
I4
sg4
(dp1207
g6
F19402048
sg7
F204.38999999999999
sg8
F3913.5500000000002
sg9
F1205.48
ssg10
(dp1208
g6
F2164832
sg7
F44.920000000000002
sg8
F422.74000000000001
sg9
F2302.0500000000002
ssg12
(dp1209
g6
F11877424
sg7
F273.33999999999997
sg8
F4031.23
sg9
F3244.04
sssI300
(dp1210
g3
I4
sg4
(dp1211
g6
F19389280
sg7
F302.43000000000001
sg8
F3889.2800000000002
sg9
F1232.96
ssg10
(dp1212
g6
F2386624
sg7
F30.379999999999999
sg8
F332.69999999999999
sg9
F2193.3800000000001
ssg12
(dp1213
g6
F10924016
sg7
F288.68000000000001
sg8
F4172.1499999999996
sg9
F3208.3099999999999
sssI301
(dp1214
g3
I4
sg4
(dp1215
g6
F27834624
sg7
F256.86000000000001
sg8
F4057.0799999999999
sg9
F1293.71
ssg10
(dp1216
g6
F2121040
sg7
F36.659999999999997
sg8
F440.87
sg9
F2283.1300000000001
ssg12
(dp1217
g6
F11692832
sg7
F260.06
sg8
F3879.8099999999999
sg9
F3182.29
sssI302
(dp1218
g3
I4
sg4
(dp1219
g6
F5844560
sg7
F56
sg8
F2127.3800000000001
sg9
F661.38999999999999
ssg10
(dp1220
g6
F2402496
sg7
F17.309999999999999
sg8
F237.80000000000001
sg9
F1103.4300000000001
ssg12
(dp1221
g6
F10907456
sg7
F159.63
sg8
F2780.5599999999999
sg9
F2034.45
sssI303
(dp1222
g3
I4
sg4
(dp1223
g6
F6049824
sg7
F174.87
sg8
F3996.8299999999999
sg9
F1209.96
ssg10
(dp1224
g6
F2124560
sg7
F37.32
sg8
F422.52999999999997
sg9
F2216.1700000000001
ssg12
(dp1225
g6
F11691952
sg7
F254.99000000000001
sg8
F3893.1700000000001
sg9
F3274.5799999999999
sssI304
(dp1226
g3
I4
sg4
(dp1227
g6
F5746736
sg7
F201.97999999999999
sg8
F3786.5700000000002
sg9
F1167.1199999999999
ssg10
(dp1228
g6
F2368320
sg7
F32.329999999999998
sg8
F323.17000000000002
sg9
F2042.6099999999999
ssg12
(dp1229
g6
F10882080
sg7
F268.61000000000001
sg8
F3964.3099999999999
sg9
F3043.02
sssI305
(dp1230
g3
I4
sg4
(dp1231
g6
F18857536
sg7
F155.13999999999999
sg8
F2874.8000000000002
sg9
F899.60000000000002
ssg10
(dp1232
g6
F1566048
sg7
F22.010000000000002
sg8
F259.35000000000002
sg9
F1331.1500000000001
ssg12
(dp1233
g6
F10867136
sg7
F171.02000000000001
sg8
F2830.79
sg9
F2660.3499999999999
sssI306
(dp1234
g3
I4
sg4
(dp1235
g6
F18988208
sg7
F85.310000000000002
sg8
F1596.96
sg9
F505.77999999999997
ssg10
(dp1236
g6
F1802480
sg7
F9.7599999999999998
sg8
F137.88
sg9
F843.23000000000002
ssg12
(dp1237
g6
F10893376
sg7
F106.95
sg8
F1981.8299999999999
sg9
F1534.0799999999999
sssI307
(dp1238
g3
I4
sg4
(dp1239
g6
F23875872
sg7
F177.03999999999999
sg8
F2914.5500000000002
sg9
F926.49000000000001
ssg10
(dp1240
g6
F1534016
sg7
F21.460000000000001
sg8
F259.68000000000001
sg9
F1405.96
ssg12
(dp1241
g6
F10858976
sg7
F170.13
sg8
F2675.0100000000002
sg9
F2541.7600000000002
sssI308
(dp1242
g3
I4
sg4
(dp1243
g6
F3980960
sg7
F176.18000000000001
sg8
F2957.1199999999999
sg9
F909.91999999999996
ssg10
(dp1244
g6
F1818048
sg7
F15.57
sg8
F190.91999999999999
sg9
F1439.99
ssg12
(dp1245
g6
F10858624
sg7
F204.37
sg8
F3058.6300000000001
sg9
F2800.8699999999999
sssI309
(dp1246
g3
I4
sg4
(dp1247
g6
F4215328
sg7
F33.170000000000002
sg8
F1457.6400000000001
sg9
F449.42000000000002
ssg10
(dp1248
g6
F1536448
sg7
F12.52
sg8
F177.19999999999999
sg9
F830.64999999999998
ssg12
(dp1249
g6
F10875088
sg7
F99.939999999999998
sg8
F1897.74
sg9
F1629.47
sssI310
(dp1250
g3
I4
sg4
(dp1251
g6
F3901552
sg7
F53.729999999999997
sg8
F1483.6600000000001
sg9
F477.22000000000003
ssg10
(dp1252
g6
F1778256
sg7
F11.49
sg8
F136.02000000000001
sg9
F689.84000000000003
ssg12
(dp1253
g6
F10826528
sg7
F100.66
sg8
F1875.28
sg9
F1725.3800000000001
sssI311
(dp1254
g3
I4
sg4
(dp1255
g6
F19286192
sg7
F93.780000000000001
sg8
F1852.0799999999999
sg9
F617.51999999999998
ssg10
(dp1256
g6
F2058144
sg7
F13.4
sg8
F185.50999999999999
sg9
F724.61000000000001
ssg12
(dp1257
g6
F10861680
sg7
F124.67
sg8
F2532.9699999999998
sg9
F2198.0500000000002
sssI312
(dp1258
g3
I4
sg4
(dp1259
g6
F19985968
sg7
F41.840000000000003
sg8
F1776.52
sg9
F588.74000000000001
ssg10
(dp1260
g6
F1779776
sg7
F16.57
sg8
F236.06999999999999
sg9
F857.87
ssg12
(dp1261
g6
F10852032
sg7
F122.90000000000001
sg8
F2179.5100000000002
sg9
F2212.0999999999999
sssI313
(dp1262
g3
I4
sg4
(dp1263
g6
F27698704
sg7
F143.34999999999999
sg8
F1904.1800000000001
sg9
F626.78999999999996
ssg10
(dp1264
g6
F2015728
sg7
F13.44
sg8
F191.59999999999999
sg9
F755.11000000000001
ssg12
(dp1265
g6
F10855776
sg7
F122.98999999999999
sg8
F2291.3499999999999
sg9
F2045.25
sssI314
(dp1266
g3
I4
sg4
(dp1267
g6
F4563808
sg7
F60.299999999999997
sg8
F1718.4000000000001
sg9
F560.84000000000003
ssg10
(dp1268
g6
F2033040
sg7
F12.32
sg8
F172.12
sg9
F842.98000000000002
ssg12
(dp1269
g6
F10864960
sg7
F127.09999999999999
sg8
F2365.4099999999999
sg9
F2048.02
sssI315
(dp1270
g3
I4
sg4
(dp1271
g6
F5798400
sg7
F107.09
sg8
F2075.25
sg9
F682.32000000000005
ssg10
(dp1272
g6
F2029744
sg7
F20.539999999999999
sg8
F282.19
sg9
F901.49000000000001
ssg12
(dp1273
g6
F11226208
sg7
F143.09
sg8
F2801.2600000000002
sg9
F2362.1500000000001
sssI316
(dp1274
g3
I4
sg4
(dp1275
g6
F10669568
sg7
F93.870000000000005
sg8
F2309.8299999999999
sg9
F784.82000000000005
ssg10
(dp1276
g6
F2277200
sg7
F33.390000000000001
sg8
F354.05000000000001
sg9
F1626.53
ssg12
(dp1277
g6
F12472016
sg7
F158.53999999999999
sg8
F3020.9899999999998
sg9
F2523.9499999999998
sssI317
(dp1278
g3
I4
sg4
(dp1279
g6
F6466032
sg7
F211.66999999999999
sg8
F4397.4300000000003
sg9
F1323.75
ssg10
(dp1280
g6
F2295568
sg7
F42.560000000000002
sg8
F480.74000000000001
sg9
F2958.27
ssg12
(dp1281
g6
F12456480
sg7
F287.38999999999999
sg8
F4607.96
sg9
F3646
sssI318
(dp1282
g3
I4
sg4
(dp1283
g6
F7091520
sg7
F200.34
sg8
F4804.96
sg9
F1447.71
ssg10
(dp1284
g6
F2518160
sg7
F48.75
sg8
F564.24000000000001
sg9
F2693.9699999999998
ssg12
(dp1285
g6
F13704800
sg7
F340.80000000000001
sg8
F5081.2200000000003
sg9
F4525.6599999999999
sssI319
(dp1286
g3
I4
sg4
(dp1287
g6
F6385632
sg7
F181.16999999999999
sg8
F4162.0600000000004
sg9
F1266.77
ssg10
(dp1288
g6
F2246208
sg7
F40.219999999999999
sg8
F469.52999999999997
sg9
F2717.3200000000002
ssg12
(dp1289
g6
F12300880
sg7
F275.60000000000002
sg8
F4534.0900000000001
sg9
F3742.9000000000001
sssI320
(dp1290
g3
I4
sg4
(dp1291
g6
F19078096
sg7
F159.71000000000001
sg8
F3195.0999999999999
sg9
F1017.5599999999999
ssg10
(dp1292
g6
F1682976
sg7
F23.66
sg8
F299.33999999999997
sg9
F2144.9099999999999
ssg12
(dp1293
g6
F10883120
sg7
F202.52000000000001
sg8
F3458.3200000000002
sg9
F2817.3200000000002
sssI321
(dp1294
g3
I4
sg4
(dp1295
g6
F4611808
sg7
F143.93000000000001
sg8
F3287.3899999999999
sg9
F1000.84
ssg10
(dp1296
g6
F1703360
sg7
F24.219999999999999
sg8
F291.44999999999999
sg9
F2089.3099999999999
ssg12
(dp1297
g6
F10883264
sg7
F187.93000000000001
sg8
F3414.3200000000002
sg9
F2672.1900000000001
sssI322
(dp1298
g3
I4
sg4
(dp1299
g6
F5493200
sg7
F183.41
sg8
F3663.8699999999999
sg9
F1103.1400000000001
ssg10
(dp1300
g6
F1928448
sg7
F33.579999999999998
sg8
F368.62
sg9
F2504.6300000000001
ssg12
(dp1301
g6
F10852208
sg7
F225.36000000000001
sg8
F3850.1700000000001
sg9
F3171.9099999999999
sssI323
(dp1302
g3
I4
sg4
(dp1303
g6
F4532272
sg7
F184.87
sg8
F3020.73
sg9
F928.05999999999995
ssg10
(dp1304
g6
F1661104
sg7
F23.09
sg8
F292.77999999999997
sg9
F2072.8800000000001
ssg12
(dp1305
g6
F10882480
sg7
F191.84999999999999
sg8
F3347.27
sg9
F2786.27
sssI324
(dp1306
g3
I4
sg4
(dp1307
g6
F19357680
sg7
F180.16
sg8
F3763.1799999999998
sg9
F1159.5899999999999
ssg10
(dp1308
g6
F1945184
sg7
F32.469999999999999
sg8
F364.5
sg9
F2316.77
ssg12
(dp1309
g6
F10905504
sg7
F237.44
sg8
F3945.6700000000001
sg9
F3203.9099999999999
sssI325
(dp1310
g3
I4
sg4
(dp1311
g6
F19436832
sg7
F135.66999999999999
sg8
F2368.9200000000001
sg9
F765.03999999999996
ssg10
(dp1312
g6
F2173824
sg7
F23.440000000000001
sg8
F332.69999999999999
sg9
F1520.1900000000001
ssg12
(dp1313
g6
F11930848
sg7
F147.81999999999999
sg8
F3066.3899999999999
sg9
F2260.4699999999998
sssI326
(dp1314
g3
I4
sg4
(dp1315
g6
F25083904
sg7
F110.70999999999999
sg8
F2083.0999999999999
sg9
F678.17999999999995
ssg10
(dp1316
g6
F1904688
sg7
F18.690000000000001
sg8
F280.97000000000003
sg9
F1049.02
ssg12
(dp1317
g6
F10867968
sg7
F129.65000000000001
sg8
F2673.1599999999999
sg9
F1948.1600000000001
sssI327
(dp1318
g3
I4
sg4
(dp1319
g6
F6162464
sg7
F199.81
sg8
F4233.6099999999997
sg9
F1301
ssg10
(dp1320
g6
F2181792
sg7
F37.060000000000002
sg8
F447.29000000000002
sg9
F2298.23
ssg12
(dp1321
g6
F11904256
sg7
F250.88
sg8
F4319.5699999999997
sg9
F3862.9000000000001
sssI328
(dp1322
g3
I4
sg4
(dp1323
g6
F5453808
sg7
F150.56999999999999
sg8
F3501.0900000000001
sg9
F1070.5
ssg10
(dp1324
g6
F1906144
sg7
F37.630000000000003
sg8
F356
sg9
F2262.6500000000001
ssg12
(dp1325
g6
F10890672
sg7
F209.72999999999999
sg8
F3787.5900000000001
sg9
F3328.6300000000001
sssI329
(dp1326
g3
I4
sg4
(dp1327
g6
F6090720
sg7
F76.349999999999994
sg8
F2170.54
sg9
F695.27999999999997
ssg10
(dp1328
g6
F2153216
sg7
F21.66
sg8
F303.45999999999998
sg9
F1702.5899999999999
ssg12
(dp1329
g6
F11747520
sg7
F146.81
sg8
F2929.48
sg9
F2355.3600000000001
sssI330
(dp1330
g3
I4
sg4
(dp1331
g6
F19326944
sg7
F35.07
sg8
F2157.8899999999999
sg9
F685.36000000000001
ssg10
(dp1332
g6
F2108928
sg7
F21.59
sg8
F304.32999999999998
sg9
F1634.97
ssg12
(dp1333
g6
F11608848
sg7
F144.13
sg8
F2874.3800000000001
sg9
F2453.1100000000001
sssI331
(dp1334
g3
I4
sg4
(dp1335
g6
F6028016
sg7
F144.65000000000001
sg8
F2184.7399999999998
sg9
F720.14999999999998
ssg10
(dp1336
g6
F2123712
sg7
F20.890000000000001
sg8
F299.85000000000002
sg9
F1189.1500000000001
ssg12
(dp1337
g6
F11600960
sg7
F151.50999999999999
sg8
F2916.4899999999998
sg9
F2558.6700000000001
sssI332
(dp1338
g3
I4
sg4
(dp1339
g6
F6646096
sg7
F77.650000000000006
sg8
F2204.0999999999999
sg9
F790.54999999999995
ssg10
(dp1340
g6
F2356560
sg7
F34.420000000000002
sg8
F385.08999999999997
sg9
F1767.1900000000001
ssg12
(dp1341
g6
F12819232
sg7
F167.69
sg8
F3137.0100000000002
sg9
F2517.79
sssI333
(dp1342
g3
I4
sg4
(dp1343
g6
F5938192
sg7
F108.03
sg8
F2261.0100000000002
sg9
F725.82000000000005
ssg10
(dp1344
g6
F2078944
sg7
F22.859999999999999
sg8
F307.37
sg9
F938.25999999999999
ssg12
(dp1345
g6
F11441696
sg7
F143.08000000000001
sg8
F2947.04
sg9
F2253.4299999999998
sssI334
(dp1346
g3
I4
sg4
(dp1347
g6
F10719296
sg7
F174.46000000000001
sg8
F2476.9400000000001
sg9
F842.10000000000002
ssg10
(dp1348
g6
F2365200
sg7
F27.109999999999999
sg8
F378.94
sg9
F1355.29
ssg12
(dp1349
g6
F12883936
sg7
F165.61000000000001
sg8
F3307.0100000000002
sg9
F2533.7800000000002
sssI335
(dp1350
g3
I4
sg4
(dp1351
g6
F12050848
sg7
F67.040000000000006
sg8
F2533.71
sg9
F839
ssg10
(dp1352
g6
F2595536
sg7
F31.32
sg8
F417.75999999999999
sg9
F1675.23
ssg12
(dp1353
g6
F14174464
sg7
F196.37
sg8
F3544.27
sg9
F2754.6300000000001
sssI336
(dp1354
g3
I4
sg4
(dp1355
g6
F20924288
sg7
F79.989999999999995
sg8
F2382.77
sg9
F812.26999999999998
ssg10
(dp1356
g6
F2322880
sg7
F26.039999999999999
sg8
F360.13
sg9
F1483.0999999999999
ssg12
(dp1357
g6
F12716720
sg7
F170.09
sg8
F3157.1599999999999
sg9
F2524.5700000000002
sssI337
(dp1358
g3
I4
sg4
(dp1359
g6
F7304336
sg7
F129.43000000000001
sg8
F2578.25
sg9
F838.49000000000001
ssg10
(dp1360
g6
F2607824
sg7
F30.899999999999999
sg8
F416.74000000000001
sg9
F1646.73
ssg12
(dp1361
g6
F14170464
sg7
F192.88999999999999
sg8
F3552.8200000000002
sg9
F2734.1100000000001
sssI338
(dp1362
g3
I4
sg4
(dp1363
g6
F6595616
sg7
F190.68000000000001
sg8
F4414.8500000000004
sg9
F1373.22
ssg10
(dp1364
g6
F2340144
sg7
F41.579999999999998
sg8
F487.64999999999998
sg9
F2627.3800000000001
ssg12
(dp1365
g6
F12709984
sg7
F294.13
sg8
F4703.4399999999996
sg9
F3942.77
sssI339
(dp1366
g3
I4
sg4
(dp1367
g6
F7228320
sg7
F272.27999999999997
sg8
F4776.5100000000002
sg9
F1464.8900000000001
ssg10
(dp1368
g6
F2573904
sg7
F52.509999999999998
sg8
F589.25
sg9
F3097.0300000000002
ssg12
(dp1369
g6
F13971856
sg7
F323.27999999999997
sg8
F5167.6199999999999
sg9
F3920.0500000000002
sssI340
(dp1370
g3
I4
sg4
(dp1371
g6
F19331360
sg7
F171.00999999999999
sg8
F3376.27
sg9
F1033.03
ssg10
(dp1372
g6
F1777072
sg7
F26.449999999999999
sg8
F323.26999999999998
sg9
F1313.5899999999999
ssg12
(dp1373
g6
F10881344
sg7
F203.65000000000001
sg8
F3596.3699999999999
sg9
F3074.48
sssI341
(dp1374
g3
I4
sg4
(dp1375
g6
F19254352
sg7
F240.52000000000001
sg8
F4064.79
sg9
F1263.48
ssg10
(dp1376
g6
F2009472
sg7
F30.420000000000002
sg8
F388.45999999999998
sg9
F2233.3600000000001
ssg12
(dp1377
g6
F11042192
sg7
F239.72
sg8
F4045.6300000000001
sg9
F3636.3600000000001
sssI342
(dp1378
g3
I4
sg4
(dp1379
g6
F25388688
sg7
F145.08000000000001
sg8
F3342.5599999999999
sg9
F1040.8099999999999
ssg10
(dp1380
g6
F1731728
sg7
F28.510000000000002
sg8
F323.36000000000001
sg9
F1727.5799999999999
ssg12
(dp1381
g6
F10876400
sg7
F202.06
sg8
F3507.1199999999999
sg9
F2991.3200000000002
sssI343
(dp1382
g3
I4
sg4
(dp1383
g6
F5715696
sg7
F190.72
sg8
F3805.2600000000002
sg9
F1176.1700000000001
ssg10
(dp1384
g6
F2019920
sg7
F39.409999999999997
sg8
F394.70999999999998
sg9
F2249.1199999999999
ssg12
(dp1385
g6
F11025664
sg7
F246.31999999999999
sg8
F4051.23
sg9
F3658.48
sssI344
(dp1386
g3
I4
sg4
(dp1387
g6
F4738272
sg7
F164.66
sg8
F3236.1100000000001
sg9
F1000.0700000000001
ssg10
(dp1388
g6
F1747264
sg7
F27.32
sg8
F304
sg9
F1579.21
ssg12
(dp1389
g6
F10868016
sg7
F194.21000000000001
sg8
F3523.9299999999998
sg9
F3026.77
sssI345
(dp1390
g3
I4
sg4
(dp1391
g6
F5632064
sg7
F204.02000000000001
sg8
F3978.2199999999998
sg9
F1206.5699999999999
ssg10
(dp1392
g6
F1977584
sg7
F31.170000000000002
sg8
F382.26999999999998
sg9
F2237.4099999999999
ssg12
(dp1393
g6
F10882096
sg7
F234.03
sg8
F3901.3800000000001
sg9
F3382.5599999999999
sssI346
(dp1394
g3
I4
sg4
(dp1395
g6
F19243520
sg7
F204.68000000000001
sg8
F4406
sg9
F1351.6800000000001
ssg10
(dp1396
g6
F2262176
sg7
F39.5
sg8
F477.50999999999999
sg9
F2656.3000000000002
ssg12
(dp1397
g6
F12298944
sg7
F259.31999999999999
sg8
F4441.8400000000001
sg9
F3756.21
sssI347
(dp1398
g3
I4
sg4
(dp1399
g6
F26907744
sg7
F203.19999999999999
sg8
F3747.1799999999998
sg9
F1197.8399999999999
ssg10
(dp1400
g6
F1986672
sg7
F31.649999999999999
sg8
F386.92000000000002
sg9
F2333.4699999999998
ssg12
(dp1401
g6
F10956496
sg7
F203.87
sg8
F3823.6300000000001
sg9
F3434.54
sssI348
(dp1402
g3
I4
sg4
(dp1403
g6
F19243760
sg7
F125.55
sg8
F2493.1599999999999
sg9
F836.76999999999998
ssg10
(dp1404
g6
F2223760
sg7
F28.170000000000002
sg8
F392.30000000000001
sg9
F1527.6300000000001
ssg12
(dp1405
g6
F12165632
sg7
F160.94
sg8
F3208.9000000000001
sg9
F2506.8499999999999
sssI349
(dp1406
g3
I4
sg4
(dp1407
g6
F6313952
sg7
F78.530000000000001
sg8
F2247.1999999999998
sg9
F759.63
ssg10
(dp1408
g6
F2234192
sg7
F30.210000000000001
sg8
F339.31999999999999
sg9
F2335.96
ssg12
(dp1409
g6
F12164560
sg7
F151.68000000000001
sg8
F2983.4299999999998
sg9
F2438.1300000000001
sssI350
(dp1410
g3
I4
sg4
(dp1411
g6
F19006976
sg7
F81.390000000000001
sg8
F1645.6600000000001
sg9
F536.21000000000004
ssg10
(dp1412
g6
F1583232
sg7
F14.98
sg8
F224.53
sg9
F1404.6400000000001
ssg12
(dp1413
g6
F10859440
sg7
F106.75
sg8
F2088.8000000000002
sg9
F1861.79
sssI351
(dp1414
g3
I4
sg4
(dp1415
g6
F4374160
sg7
F56.479999999999997
sg8
F1547.5699999999999
sg9
F498.94999999999999
ssg10
(dp1416
g6
F1592208
sg7
F13.52
sg8
F186.25
sg9
F1378.6900000000001
ssg12
(dp1417
g6
F10859376
sg7
F104.44
sg8
F1977.0599999999999
sg9
F1902.74
sssI352
(dp1418
g3
I4
sg4
(dp1419
g6
F5262944
sg7
F100.61
sg8
F1825.22
sg9
F593.04999999999995
ssg10
(dp1420
g6
F1826704
sg7
F16.93
sg8
F234.99000000000001
sg9
F1196.3599999999999
ssg12
(dp1421
g6
F10859424
sg7
F123.7
sg8
F2266.3200000000002
sg9
F2337.8099999999999
sssI353
(dp1422
g3
I4
sg4
(dp1423
g6
F4483056
sg7
F88.209999999999994
sg8
F1503.0899999999999
sg9
F511.14999999999998
ssg10
(dp1424
g6
F1556704
sg7
F12.380000000000001
sg8
F181.71000000000001
sg9
F1063.97
ssg12
(dp1425
g6
F10859408
sg7
F102.42
sg8
F1892.6099999999999
sg9
F1810.4100000000001
sssI354
(dp1426
g3
I4
sg4
(dp1427
g6
F19166176
sg7
F152.78999999999999
sg8
F3444.1500000000001
sg9
F1060.51
ssg10
(dp1428
g6
F1832016
sg7
F29.449999999999999
sg8
F333.58999999999997
sg9
F1516.1700000000001
ssg12
(dp1429
g6
F10866400
sg7
F223.28
sg8
F3395.8099999999999
sg9
F3260.75
sssI355
(dp1430
g3
I4
sg4
(dp1431
g6
F19465840
sg7
F155.46000000000001
sg8
F2252.5
sg9
F736.55999999999995
ssg10
(dp1432
g6
F2069760
sg7
F23.91
sg8
F334.75999999999999
sg9
F1644.6800000000001
ssg12
(dp1433
g6
F11458992
sg7
F143.16999999999999
sg8
F2703.9699999999998
sg9
F2056.3699999999999
sssI356
(dp1434
g3
I4
sg4
(dp1435
g6
F33652816
sg7
F166.84999999999999
sg8
F3377.23
sg9
F1022.29
ssg10
(dp1436
g6
F1797136
sg7
F28.449999999999999
sg8
F338.25999999999999
sg9
F1433.77
ssg12
(dp1437
g6
F10842992
sg7
F220.19
sg8
F3284.1599999999999
sg9
F3253.6999999999998
sssI357
(dp1438
g3
I4
sg4
(dp1439
g6
F5915360
sg7
F140.86000000000001
sg8
F3685.9099999999999
sg9
F1090.6500000000001
ssg10
(dp1440
g6
F2082864
sg7
F32.090000000000003
sg8
F427.51999999999998
sg9
F1860.53
ssg12
(dp1441
g6
F11461232
sg7
F239.43000000000001
sg8
F3759.02
sg9
F3308.5799999999999
sssI358
(dp1442
g3
I4
sg4
(dp1443
g6
F5215184
sg7
F112.66
sg8
F1849.5599999999999
sg9
F592.88
ssg10
(dp1444
g6
F1816192
sg7
F17.02
sg8
F245.93000000000001
sg9
F1069
ssg12
(dp1445
g6
F10867312
sg7
F122.31999999999999
sg8
F2398.7600000000002
sg9
F1815.3699999999999
sssI359
(dp1446
g3
I4
sg4
(dp1447
g6
F5855968
sg7
F80.5
sg8
F2079.7800000000002
sg9
F658.49000000000001
ssg10
(dp1448
g6
F2043056
sg7
F20.120000000000001
sg8
F278.10000000000002
sg9
F1318.28
ssg12
(dp1449
g6
F11320816
sg7
F144.40000000000001
sg8
F2581.98
sg9
F2089.0300000000002
sssI360
(dp1450
g3
I4
sg4
(dp1451
g6
F18880480
sg7
F63.859999999999999
sg8
F1159.97
sg9
F375.48000000000002
ssg10
(dp1452
g6
F1248400
sg7
F9.3000000000000007
sg8
F129.21000000000001
sg9
F487.01999999999998
ssg12
(dp1453
g6
F10819520
sg7
F79.120000000000005
sg8
F1505.1500000000001
sg9
F1211.0699999999999
sssI361
(dp1454
g3
I4
sg4
(dp1455
g6
F19111840
sg7
F180.25999999999999
sg8
F2703.1100000000001
sg9
F853.65999999999997
ssg10
(dp1456
g6
F1470128
sg7
F24.760000000000002
sg8
F241.36000000000001
sg9
F1623.6400000000001
ssg12
(dp1457
g6
F10826336
sg7
F175.59999999999999
sg8
F2727.3600000000001
sg9
F2743.8400000000001
sssI362
(dp1458
g3
I4
sg4
(dp1459
g6
F24428752
sg7
F112.37
sg8
F2244
sg9
F701.13
ssg10
(dp1460
g6
F1203584
sg7
F13.77
sg8
F187.58000000000001
sg9
F1459.6099999999999
ssg12
(dp1461
g6
F10835472
sg7
F124.93000000000001
sg8
F2117.77
sg9
F1995.71
sssI363
(dp1462
g3
I4
sg4
(dp1463
g6
F4066384
sg7
F78.560000000000002
sg8
F2795.5700000000002
sg9
F840.84000000000003
ssg10
(dp1464
g6
F1483216
sg7
F17.93
sg8
F239.74000000000001
sg9
F1306.6400000000001
ssg12
(dp1465
g6
F10834016
sg7
F184.38
sg8
F2744.25
sg9
F2967.6199999999999
sssI364
(dp1466
g3
I4
sg4
(dp1467
g6
F3358336
sg7
F75.269999999999996
sg8
F2188.1700000000001
sg9
F658.78999999999996
ssg10
(dp1468
g6
F1223200
sg7
F13.890000000000001
sg8
F172.81
sg9
F1610.54
ssg12
(dp1469
g6
F10867792
sg7
F123.92
sg8
F2149.8099999999999
sg9
F1991.95
sssI365
(dp1470
g3
I4
sg4
(dp1471
g6
F3985840
sg7
F89.739999999999995
sg8
F2584.48
sg9
F804.95000000000005
ssg10
(dp1472
g6
F1448352
sg7
F18.57
sg8
F226.22999999999999
sg9
F1264.0599999999999
ssg12
(dp1473
g6
F10818688
sg7
F174.03
sg8
F2611.0599999999999
sg9
F2861.71
sssI366
(dp1474
g3
I4
sg4
(dp1475
g6
F19069424
sg7
F50.619999999999997
sg8
F1725.4000000000001
sg9
F561.88
ssg10
(dp1476
g6
F1736704
sg7
F15.76
sg8
F218.19
sg9
F1395.02
ssg12
(dp1477
g6
F10833296
sg7
F116.54000000000001
sg8
F2158.6799999999998
sg9
F1929.3900000000001
sssI367
(dp1478
g3
I4
sg4
(dp1479
g6
F28685664
sg7
F120.95
sg8
F2826.6799999999998
sg9
F909.24000000000001
ssg10
(dp1480
g6
F1461440
sg7
F20.59
sg8
F249.36000000000001
sg9
F1275.03
ssg12
(dp1481
g6
F10817248
sg7
F144.94
sg8
F2503.6100000000001
sg9
F2624.9400000000001
sssI368
(dp1482
g3
I4
sg4
(dp1483
g6
F21858032
sg7
F139
sg8
F3141.3699999999999
sg9
F988.5
ssg10
(dp1484
g6
F1689232
sg7
F22.329999999999998
sg8
F314.69
sg9
F1580.3099999999999
ssg12
(dp1485
g6
F10851568
sg7
F168.19
sg8
F2965.7800000000002
sg9
F2987.3000000000002
sssI369
(dp1486
g3
I4
sg4
(dp1487
g6
F4661328
sg7
F48.369999999999997
sg8
F1615.4200000000001
sg9
F517.89999999999998
ssg10
(dp1488
g6
F1702400
sg7
F19.489999999999998
sg8
F217.58000000000001
sg9
F1579.5799999999999
ssg12
(dp1489
g6
F10858720
sg7
F111.87
sg8
F2040.46
sg9
F1838.1700000000001
sssI370
(dp1490
g3
I4
sg4
(dp1491
g6
F19228624
sg7
F85.939999999999998
sg8
F1660.29
sg9
F583.96000000000004
ssg10
(dp1492
g6
F1674272
sg7
F14.75
sg8
F200.80000000000001
sg9
F717.20000000000005
ssg12
(dp1493
g6
F10817024
sg7
F112.26000000000001
sg8
F2067.96
sg9
F1970.55
sssI371
(dp1494
g3
I4
sg4
(dp1495
g6
F10474224
sg7
F115.61
sg8
F2038.78
sg9
F680.58000000000004
ssg10
(dp1496
g6
F1900000
sg7
F18.350000000000001
sg8
F271.58999999999997
sg9
F1185.99
ssg12
(dp1497
g6
F10818832
sg7
F128.65000000000001
sg8
F2459.3899999999999
sg9
F1829.23
sssI372
(dp1498
g3
I4
sg4
(dp1499
g6
F19767088
sg7
F71.290000000000006
sg8
F1658.03
sg9
F584.45000000000005
ssg10
(dp1500
g6
F1629264
sg7
F14.56
sg8
F202.33000000000001
sg9
F739.02999999999997
ssg12
(dp1501
g6
F10817328
sg7
F103.93000000000001
sg8
F1959.8299999999999
sg9
F1571.1400000000001
sssI373
(dp1502
g3
I4
sg4
(dp1503
g6
F5459328
sg7
F50.810000000000002
sg8
F1901.3
sg9
F618.88
ssg10
(dp1504
g6
F1911296
sg7
F18.149999999999999
sg8
F251.78
sg9
F1183.4200000000001
ssg12
(dp1505
g6
F10868112
sg7
F133.55000000000001
sg8
F2387.6900000000001
sg9
F1922.0899999999999
sssI374
(dp1506
g3
I4
sg4
(dp1507
g6
F4514816
sg7
F110.68000000000001
sg8
F1711.47
sg9
F557.40999999999997
ssg10
(dp1508
g6
F1636832
sg7
F14.16
sg8
F212.06999999999999
sg9
F1050.78
ssg12
(dp1509
g6
F10873744
sg7
F109.15000000000001
sg8
F2119.8400000000001
sg9
F1733.1500000000001
sssI375
(dp1510
g3
I4
sg4
(dp1511
g6
F5394704
sg7
F61.979999999999997
sg8
F1789.1500000000001
sg9
F617.47000000000003
ssg10
(dp1512
g6
F1874048
sg7
F23.09
sg8
F256.69999999999999
sg9
F1395.6700000000001
ssg12
(dp1513
g6
F10859808
sg7
F126.39
sg8
F2265.2600000000002
sg9
F1969.45
sssI376
(dp1514
g3
I4
sg4
(dp1515
g6
F19389600
sg7
F153.56
sg8
F3920.9099999999999
sg9
F1189.04
ssg10
(dp1516
g6
F2163552
sg7
F39.850000000000001
sg8
F430.30000000000001
sg9
F2085.3200000000002
ssg12
(dp1517
g6
F11845936
sg7
F265.08999999999997
sg8
F4050.23
sg9
F3239.77
sssI377
(dp1518
g3
I4
sg4
(dp1519
g6
F29447248
sg7
F199.25
sg8
F3564.7800000000002
sg9
F1100.0899999999999
ssg10
(dp1520
g6
F1890064
sg7
F30.620000000000001
sg8
F354.43000000000001
sg9
F1834.5799999999999
ssg12
(dp1521
g6
F10875632
sg7
F235.38
sg8
F3432.9099999999999
sg9
F2952.5999999999999
sssI378
(dp1522
g3
I4
sg4
(dp1523
g6
F20843008
sg7
F230.88
sg8
F3826.3800000000001
sg9
F1212.3599999999999
ssg10
(dp1524
g6
F2121920
sg7
F35.890000000000001
sg8
F438.88999999999999
sg9
F2362.3899999999999
ssg12
(dp1525
g6
F11681184
sg7
F242.12
sg8
F3852.3600000000001
sg9
F3371.3400000000001
sssI379
(dp1526
g3
I4
sg4
(dp1527
g6
F6068736
sg7
F227.84
sg8
F4168.21
sg9
F1264.5899999999999
ssg10
(dp1528
g6
F2130192
sg7
F35.079999999999998
sg8
F424.99000000000001
sg9
F2414.25
ssg12
(dp1529
g6
F11682032
sg7
F244.97
sg8
F3909.8699999999999
sg9
F3263.4299999999998
sssI380
(dp1530
g3
I4
sg4
(dp1531
g6
F18932800
sg7
F166.55000000000001
sg8
F2849.9099999999999
sg9
F864.74000000000001
ssg10
(dp1532
g6
F1557312
sg7
F21.780000000000001
sg8
F256.95999999999998
sg9
F1244.73
ssg12
(dp1533
g6
F10843552
sg7
F171.44
sg8
F2784.6700000000001
sg9
F2562.2199999999998
sssI381
(dp1534
g3
I4
sg4
(dp1535
g6
F22587824
sg7
F151.75999999999999
sg8
F2527
sg9
F809.63999999999999
ssg10
(dp1536
g6
F1291376
sg7
F16.059999999999999
sg8
F217.37
sg9
F1037.51
ssg12
(dp1537
g6
F10849680
sg7
F139.74000000000001
sg8
F2289.25
sg9
F2173.52
sssI382
(dp1538
g3
I4
sg4
(dp1539
g6
F26717904
sg7
F161.91999999999999
sg8
F2785.4299999999998
sg9
F884.39999999999998
ssg10
(dp1540
g6
F1522448
sg7
F23.129999999999999
sg8
F266.44999999999999
sg9
F1319.0699999999999
ssg12
(dp1541
g6
F10826528
sg7
F155.69999999999999
sg8
F2623.25
sg9
F2480.8099999999999
sssI383
(dp1542
g3
I4
sg4
(dp1543
g6
F4213616
sg7
F70.280000000000001
sg8
F2680.5900000000001
sg9
F809.29999999999995
ssg10
(dp1544
g6
F1535552
sg7
F20.850000000000001
sg8
F248.69
sg9
F1316.1900000000001
ssg12
(dp1545
g6
F10825936
sg7
F171.94999999999999
sg8
F2809.0300000000002
sg9
F2629.4499999999998
sssI384
(dp1546
g3
I4
sg4
(dp1547
g6
F22125488
sg7
F169.09999999999999
sg8
F3375.1799999999998
sg9
F1080.0599999999999
ssg10
(dp1548
g6
F1775344
sg7
F30.030000000000001
sg8
F332.12
sg9
F1805.28
ssg12
(dp1549
g6
F10866112
sg7
F196.58000000000001
sg8
F3141.8299999999999
sg9
F2909.1100000000001
sssI385
(dp1550
g3
I5
sg4
(dp1551
g6
F26658000
sg7
F309.57999999999998
sg8
F6508.9799999999996
sg9
F1952.5
ssg10
(dp1552
g6
F3366736
sg7
F77.299999999999997
sg8
F1039.5999999999999
sg9
F3404.4200000000001
ssg12
(dp1553
g6
F18388224
sg7
F388.51999999999998
sg8
F6522.0699999999997
sg9
F4904.8299999999999
sssI386
(dp1554
g3
I5
sg4
(dp1555
g6
F20370160
sg7
F73.659999999999997
sg8
F2701.5100000000002
sg9
F881.92999999999995
ssg10
(dp1556
g6
F2774752
sg7
F36.649999999999999
sg8
F464.81999999999999
sg9
F1889.3499999999999
ssg12
(dp1557
g6
F15073024
sg7
F214.06999999999999
sg8
F3827.0500000000002
sg9
F2913.7600000000002
sssI387
(dp1558
g3
I5
sg4
(dp1559
g6
F38085344
sg7
F108.02
sg8
F3036.6100000000001
sg9
F974.14999999999998
ssg10
(dp1560
g6
F3029568
sg7
F39.659999999999997
sg8
F530.35000000000002
sg9
F2133.6599999999999
ssg12
(dp1561
g6
F16460656
sg7
F229.44999999999999
sg8
F4118.1700000000001
sg9
F3455.79
sssI388
(dp1562
g3
I5
sg4
(dp1563
g6
F14602336
sg7
F166.34999999999999
sg8
F3222.4899999999998
sg9
F1017.3200000000001
ssg10
(dp1564
g6
F3034752
sg7
F40.200000000000003
sg8
F562.91999999999996
sg9
F2402.5
ssg12
(dp1565
g6
F16454464
sg7
F222.08000000000001
sg8
F4262.8800000000001
sg9
F3323.4499999999998
sssI389
(dp1566
g3
I5
sg4
(dp1567
g6
F20596176
sg7
F200.15000000000001
sg8
F3217.1799999999998
sg9
F1004.28
ssg10
(dp1568
g6
F3259200
sg7
F36.299999999999997
sg8
F473.44
sg9
F2109.6300000000001
ssg12
(dp1569
g6
F15252448
sg7
F226.24000000000001
sg8
F4420.96
sg9
F3371.1100000000001
sssI390
(dp1570
g3
I5
sg4
(dp1571
g6
F21558832
sg7
F53.409999999999997
sg8
F2979.1500000000001
sg9
F943.42999999999995
ssg10
(dp1572
g6
F2992432
sg7
F40.140000000000001
sg8
F528.88999999999999
sg9
F2430.29
ssg12
(dp1573
g6
F16292976
sg7
F226.00999999999999
sg8
F4082.3499999999999
sg9
F3389.7800000000002
sssI391
(dp1574
g3
I5
sg4
(dp1575
g6
F15288768
sg7
F134.86000000000001
sg8
F3180.5100000000002
sg9
F1017.08
ssg10
(dp1576
g6
F3199520
sg7
F60.18
sg8
F649.38999999999999
sg9
F3123.8200000000002
ssg12
(dp1577
g6
F17430160
sg7
F245.56999999999999
sg8
F4360.5699999999997
sg9
F3829.3699999999999
sssI392
(dp1578
g3
I5
sg4
(dp1579
g6
F32578992
sg7
F265.97000000000003
sg8
F6241.4099999999999
sg9
F1927
ssg10
(dp1580
g6
F3443136
sg7
F88.269999999999996
sg8
F947.75999999999999
sg9
F4962.8800000000001
ssg12
(dp1581
g6
F18823216
sg7
F473.37
sg8
F7220.04
sg9
F5331.3000000000002
sssI393
(dp1582
g3
I5
sg4
(dp1583
g6
F26734352
sg7
F284.50999999999999
sg8
F6491.3699999999999
sg9
F2017.22
ssg10
(dp1584
g6
F3461104
sg7
F88.150000000000006
sg8
F940.86000000000001
sg9
F5793.2799999999997
ssg12
(dp1585
g6
F18815648
sg7
F468.74000000000001
sg8
F7174.5699999999997
sg9
F5356.7700000000004
sssI394
(dp1586
g3
I5
sg4
(dp1587
g6
F15099872
sg7
F370.87
sg8
F6518.8900000000003
sg9
F2058.4000000000001
ssg10
(dp1588
g6
F3687888
sg7
F74.480000000000004
sg8
F794.86000000000001
sg9
F5753.5
ssg12
(dp1589
g6
F17597104
sg7
F468.20999999999998
sg8
F7287.8500000000004
sg9
F5562.2799999999997
sssI395
(dp1590
g3
I5
sg4
(dp1591
g6
F20797520
sg7
F266.06999999999999
sg8
F6316.3800000000001
sg9
F1955.1199999999999
ssg10
(dp1592
g6
F3414448
sg7
F87.579999999999998
sg8
F927.91999999999996
sg9
F5823.3599999999997
ssg12
(dp1593
g6
F18645136
sg7
F474.60000000000002
sg8
F7186.3599999999997
sg9
F5748.5
sssI396
(dp1594
g3
I5
sg4
(dp1595
g6
F26227808
sg7
F323.58999999999997
sg8
F5279.1800000000003
sg9
F1718.1600000000001
ssg10
(dp1596
g6
F2847920
sg7
F61.539999999999999
sg8
F692.54999999999995
sg9
F3604.6100000000001
ssg12
(dp1597
g6
F15498240
sg7
F387.50999999999999
sg8
F5876.9300000000003
sg9
F4391.6000000000004
sssI397
(dp1598
g3
I5
sg4
(dp1599
g6
F26217712
sg7
F287.41000000000003
sg8
F5439.4200000000001
sg9
F1716.1600000000001
ssg10
(dp1600
g6
F2869120
sg7
F62.609999999999999
sg8
F676.96000000000004
sg9
F3432.9899999999998
ssg12
(dp1601
g6
F15490672
sg7
F376.73000000000002
sg8
F5884.0900000000001
sg9
F5069.71
sssI398
(dp1602
g3
I5
sg4
(dp1603
g6
F20258608
sg7
F315.44
sg8
F5184.8500000000004
sg9
F1668.78
ssg10
(dp1604
g6
F3096560
sg7
F49.039999999999999
sg8
F575.89999999999998
sg9
F4004.3499999999999
ssg12
(dp1605
g6
F14260704
sg7
F394.57999999999998
sg8
F6029.3599999999997
sg9
F4876.1400000000003
sssI399
(dp1606
g3
I5
sg4
(dp1607
g6
F20384640
sg7
F139.47
sg8
F2767.04
sg9
F970.54999999999995
ssg10
(dp1608
g6
F2821312
sg7
F41.240000000000002
sg8
F542.65999999999997
sg9
F1498.0899999999999
ssg12
(dp1609
g6
F15336208
sg7
F222.91999999999999
sg8
F3885.0900000000001
sg9
F2797.3099999999999
sssI400
(dp1610
g3
I5
sg4
(dp1611
g6
F27041200
sg7
F386.58999999999997
sg8
F5520.5500000000002
sg9
F1774.5699999999999
ssg10
(dp1612
g6
F3113296
sg7
F71.459999999999994
sg8
F802.46000000000004
sg9
F5834.2200000000003
ssg12
(dp1613
g6
F16889856
sg7
F400.29000000000002
sg8
F6309.8800000000001
sg9
F4876.1300000000001
sssI401
(dp1614
g3
I5
sg4
(dp1615
g6
F29413312
sg7
F215.81999999999999
sg8
F5376.6300000000001
sg9
F1742.5899999999999
ssg10
(dp1616
g6
F3336224
sg7
F59.509999999999998
sg8
F659.38
sg9
F5687.4099999999999
ssg12
(dp1617
g6
F15676624
sg7
F409.55000000000001
sg8
F6455.7700000000004
sg9
F4842.8400000000001
sssI402
(dp1618
g3
I5
sg4
(dp1619
g6
F26424224
sg7
F238.74000000000001
sg8
F3398.77
sg9
F1123.6700000000001
ssg10
(dp1620
g6
F3069520
sg7
F44.299999999999997
sg8
F588.38999999999999
sg9
F2427.2199999999998
ssg12
(dp1621
g6
F16708208
sg7
F223.22
sg8
F4290.9499999999998
sg9
F3386.8400000000001
sssI403
(dp1622
g3
I5
sg4
(dp1623
g6
F20588752
sg7
F148.65000000000001
sg8
F3073.79
sg9
F988.13999999999999
ssg10
(dp1624
g6
F3361232
sg7
F40.829999999999998
sg8
F547.44000000000005
sg9
F2015.71
ssg12
(dp1625
g6
F15666048
sg7
F248.94999999999999
sg8
F4357.0500000000002
sg9
F3396.9699999999998
sssI404
(dp1626
g3
I5
sg4
(dp1627
g6
F20584928
sg7
F255.40000000000001
sg8
F3249.6599999999999
sg9
F1038.5
ssg10
(dp1628
g6
F3081200
sg7
F43.090000000000003
sg8
F575.34000000000003
sg9
F2708.25
ssg12
(dp1629
g6
F16719488
sg7
F225.69
sg8
F4336.5500000000002
sg9
F3282.3699999999999
sssI405
(dp1630
g3
I5
sg4
(dp1631
g6
F26449520
sg7
F91.879999999999995
sg8
F3037.4000000000001
sg9
F957.98000000000002
ssg10
(dp1632
g6
F3321184
sg7
F37.520000000000003
sg8
F515.10000000000002
sg9
F3070.6300000000001
ssg12
(dp1633
g6
F15517824
sg7
F242.65000000000001
sg8
F4393.0799999999999
sg9
F3349.8400000000001
sssI406
(dp1634
g3
I5
sg4
(dp1635
g6
F20425728
sg7
F191.55000000000001
sg8
F4627.3299999999999
sg9
F1411.8099999999999
ssg10
(dp1636
g6
F2669136
sg7
F53.850000000000001
sg8
F605.19000000000005
sg9
F2990.6199999999999
ssg12
(dp1637
g6
F14547536
sg7
F314.19999999999999
sg8
F4807.9700000000003
sg9
F5304.3000000000002
sssI407
(dp1638
g3
I5
sg4
(dp1639
g6
F29248096
sg7
F90.849999999999994
sg8
F2796.0900000000001
sg9
F932.10000000000002
ssg10
(dp1640
g6
F2916608
sg7
F54.619999999999997
sg8
F539.63999999999999
sg9
F2970.1700000000001
ssg12
(dp1641
g6
F15940208
sg7
F226.53
sg8
F3757.96
sg9
F3954.7800000000002
sssI408
(dp1642
g3
I5
sg4
(dp1643
g6
F26306544
sg7
F65.909999999999997
sg8
F2930.6999999999998
sg9
F1028.8199999999999
ssg10
(dp1644
g6
F2928288
sg7
F38.770000000000003
sg8
F491
sg9
F1713.8099999999999
ssg12
(dp1645
g6
F15957056
sg7
F224.77000000000001
sg8
F3879.6100000000001
sg9
F3505.1199999999999
sssI409
(dp1646
g3
I5
sg4
(dp1647
g6
F26239696
sg7
F160.27000000000001
sg8
F2933.6300000000001
sg9
F1012.98
ssg10
(dp1648
g6
F3168784
sg7
F32.82
sg8
F429.27999999999997
sg9
F1670.75
ssg12
(dp1649
g6
F14738800
sg7
F237.16
sg8
F4193.6000000000004
sg9
F3249.79
sssI410
(dp1650
g3
I5
sg4
(dp1651
g6
F14519872
sg7
F126.26000000000001
sg8
F3028.1399999999999
sg9
F1005.34
ssg10
(dp1652
g6
F2891840
sg7
F37.280000000000001
sg8
F511.14999999999998
sg9
F2003.05
ssg12
(dp1653
g6
F15794544
sg7
F211.80000000000001
sg8
F3858.4099999999999
sg9
F3186.7199999999998
sssI411
(dp1654
g3
I5
sg4
(dp1655
g6
F28880160
sg7
F127.15000000000001
sg8
F2563.3800000000001
sg9
F869.85000000000002
ssg10
(dp1656
g6
F2321280
sg7
F27.190000000000001
sg8
F362.32999999999998
sg9
F1321.0999999999999
ssg12
(dp1657
g6
F12676752
sg7
F163.66
sg8
F3026.8899999999999
sg9
F2554.6700000000001
sssI412
(dp1658
g3
I5
sg4
(dp1659
g6
F15052064
sg7
F75.340000000000003
sg8
F2329.52
sg9
F848.54999999999995
ssg10
(dp1660
g6
F2340112
sg7
F25.379999999999999
sg8
F346.69
sg9
F1667.4300000000001
ssg12
(dp1661
g6
F12668624
sg7
F169.52000000000001
sg8
F2972.7600000000002
sg9
F2689.5500000000002
sssI413
(dp1662
g3
I5
sg4
(dp1663
g6
F14246368
sg7
F123.27
sg8
F2301.6700000000001
sg9
F786.07000000000005
ssg10
(dp1664
g6
F2569232
sg7
F26.969999999999999
sg8
F290.81
sg9
F1296.55
ssg12
(dp1665
g6
F11650048
sg7
F164.81999999999999
sg8
F2967.1399999999999
sg9
F2614.2600000000002
sssI414
(dp1666
g3
I5
sg4
(dp1667
g6
F25899808
sg7
F185.77000000000001
sg8
F4262.6700000000001
sg9
F1330.23
ssg10
(dp1668
g6
F2300672
sg7
F40.079999999999998
sg8
F467.94999999999999
sg9
F2654.3699999999999
ssg12
(dp1669
g6
F12515760
sg7
F276.14999999999998
sg8
F4374.75
sg9
F3521.0300000000002
sssI415
(dp1670
g3
I5
sg4
(dp1671
g6
F29152336
sg7
F231.30000000000001
sg8
F4573.3500000000004
sg9
F1441.03
ssg10
(dp1672
g6
F2580448
sg7
F51.25
sg8
F563.49000000000001
sg9
F3569.5700000000002
ssg12
(dp1673
g6
F13998160
sg7
F335.13
sg8
F4936.7200000000003
sg9
F3982.29
sssI416
(dp1674
g3
I5
sg4
(dp1675
g6
F31437568
sg7
F243.83000000000001
sg8
F4714.1199999999999
sg9
F1487.95
ssg10
(dp1676
g6
F2815888
sg7
F45.82
sg8
F460.67000000000002
sg9
F3176.6300000000001
ssg12
(dp1677
g6
F12880080
sg7
F364.93000000000001
sg8
F5054.0200000000004
sg9
F3914.73
sssI417
(dp1678
g3
I5
sg4
(dp1679
g6
F31870752
sg7
F242.11000000000001
sg8
F4750.3999999999996
sg9
F1516.5999999999999
ssg10
(dp1680
g6
F2539824
sg7
F47.990000000000002
sg8
F569.90999999999997
sg9
F3582.4899999999998
ssg12
(dp1681
g6
F13815632
sg7
F330.37
sg8
F4773.5699999999997
sg9
F3855.0100000000002
sssI418
(dp1682
g3
I5
sg4
(dp1683
g6
F14267680
sg7
F297.42000000000002
sg8
F5037.9099999999999
sg9
F1596.47
ssg10
(dp1684
g6
F2828400
sg7
F46.390000000000001
sg8
F467.73000000000002
sg9
F4552.9700000000003
ssg12
(dp1685
g6
F12870688
sg7
F358.75999999999999
sg8
F5207.4499999999998
sg9
F4170.3100000000004
sssI419
(dp1686
g3
I5
sg4
(dp1687
g6
F25985632
sg7
F219.28999999999999
sg8
F4347.9799999999996
sg9
F1413.78
ssg10
(dp1688
g6
F2551424
sg7
F47.799999999999997
sg8
F548.78999999999996
sg9
F3986.3800000000001
ssg12
(dp1689
g6
F13831280
sg7
F337.55000000000001
sg8
F4898.0600000000004
sg9
F4056.3099999999999
sssI420
(dp1690
g3
I5
sg4
(dp1691
g6
F26236288
sg7
F257.31
sg8
F4694.5100000000002
sg9
F1566.1300000000001
ssg10
(dp1692
g6
F2778112
sg7
F41.869999999999997
sg8
F449.19999999999999
sg9
F3710.3699999999999
ssg12
(dp1693
g6
F12729872
sg7
F348.11000000000001
sg8
F4976.25
sg9
F3782.29
sssI421
(dp1694
g3
I5
sg4
(dp1695
g6
F31494400
sg7
F315.37
sg8
F4756.4499999999998
sg9
F1560.8499999999999
ssg10
(dp1696
g6
F2744336
sg7
F58.109999999999999
sg8
F636.58000000000004
sg9
F4516.8800000000001
ssg12
(dp1697
g6
F15007440
sg7
F366.99000000000001
sg8
F5273.6400000000003
sg9
F4197.5200000000004
sssI422
(dp1698
g3
I5
sg4
(dp1699
g6
F20213232
sg7
F221.13999999999999
sg8
F4907.7200000000003
sg9
F1554.9000000000001
ssg10
(dp1700
g6
F2758640
sg7
F56.140000000000001
sg8
F633.53999999999996
sg9
F4321.6199999999999
ssg12
(dp1701
g6
F14996208
sg7
F352.36000000000001
sg8
F5238.8500000000004
sg9
F4276.1099999999997
sssI423
(dp1702
g3
I5
sg4
(dp1703
g6
F14387728
sg7
F292.80000000000001
sg8
F4923.75
sg9
F1535.9100000000001
ssg10
(dp1704
g6
F2995616
sg7
F43.380000000000003
sg8
F522.25
sg9
F4196.1199999999999
ssg12
(dp1705
g6
F13816624
sg7
F316.56999999999999
sg8
F5092.54
sg9
F4011.4499999999998
sssI424
(dp1706
g3
I5
sg4
(dp1707
g6
F26351296
sg7
F94.890000000000001
sg8
F2663.6199999999999
sg9
F863.26999999999998
ssg10
(dp1708
g6
F2721600
sg7
F35.18
sg8
F438.31
sg9
F1933.1900000000001
ssg12
(dp1709
g6
F14849728
sg7
F210.72999999999999
sg8
F3499.2199999999998
sg9
F2701.1799999999998
sssI425
(dp1710
g3
I5
sg4
(dp1711
g6
F26111664
sg7
F218.49000000000001
sg8
F3221.4400000000001
sg9
F1046.72
ssg10
(dp1712
g6
F3003600
sg7
F42.57
sg8
F550.51999999999998
sg9
F2899.5999999999999
ssg12
(dp1713
g6
F16392464
sg7
F220.27000000000001
sg8
F3992.5999999999999
sg9
F3394.3499999999999
sssI426
(dp1714
g3
I5
sg4
(dp1715
g6
F25744272
sg7
F120.56999999999999
sg8
F3009.8800000000001
sg9
F972.14999999999998
ssg10
(dp1716
g6
F3241472
sg7
F33.259999999999998
sg8
F427.01999999999998
sg9
F2077.5700000000002
ssg12
(dp1717
g6
F15174464
sg7
F234.28999999999999
sg8
F3900.3699999999999
sg9
F3125.3600000000001
sssI427
(dp1718
g3
I5
sg4
(dp1719
g6
F22946848
sg7
F148.49000000000001
sg8
F3003.8400000000001
sg9
F1000.15
ssg10
(dp1720
g6
F2966784
sg7
F38.909999999999997
sg8
F530.94000000000005
sg9
F3122.3699999999999
ssg12
(dp1721
g6
F16210736
sg7
F229.75999999999999
sg8
F3794.5100000000002
sg9
F3318.0999999999999
sssI428
(dp1722
g3
I5
sg4
(dp1723
g6
F26382656
sg7
F169.22999999999999
sg8
F3107.4099999999999
sg9
F1004.49
ssg10
(dp1724
g6
F3254848
sg7
F34.719999999999999
sg8
F451.81999999999999
sg9
F2948.3499999999999
ssg12
(dp1725
g6
F15166528
sg7
F221.65000000000001
sg8
F4049.0599999999999
sg9
F3266.0900000000001
sssI429
(dp1726
g3
I5
sg4
(dp1727
g6
F26305904
sg7
F130.55000000000001
sg8
F2892.4200000000001
sg9
F989.36000000000001
ssg10
(dp1728
g6
F2979072
sg7
F57.189999999999998
sg8
F549.65999999999997
sg9
F2557.3400000000001
ssg12
(dp1729
g6
F16226000
sg7
F226.87
sg8
F3801.3899999999999
sg9
F4584.8699999999999
sssI430
(dp1730
g3
I5
sg4
(dp1731
g6
F20448816
sg7
F115.83
sg8
F2951.3000000000002
sg9
F974.10000000000002
ssg10
(dp1732
g6
F3212496
sg7
F32.979999999999997
sg8
F430.24000000000001
sg9
F5474.9799999999996
ssg12
(dp1733
g6
F15010688
sg7
F234.33000000000001
sg8
F3913.0700000000002
sg9
F2842.0100000000002
sssI431
(dp1734
g3
I5
sg4
(dp1735
g6
F29043104
sg7
F120.39
sg8
F2270.8200000000002
sg9
F750.91999999999996
ssg10
(dp1736
g6
F2407712
sg7
F27.949999999999999
sg8
F353.58999999999997
sg9
F5250.5799999999999
ssg12
(dp1737
g6
F13081920
sg7
F170.41
sg8
F3028.1700000000001
sg9
F2245.3899999999999
sssI432
(dp1738
g3
I5
sg4
(dp1739
g6
F34742336
sg7
F214.71000000000001
sg8
F4461.0200000000004
sg9
F1372.3699999999999
ssg10
(dp1740
g6
F2642976
sg7
F34.729999999999997
sg8
F439.91000000000003
sg9
F1330.8499999999999
ssg12
(dp1741
g6
F12019760
sg7
F318.74000000000001
sg8
F4750.5500000000002
sg9
F6916.2399999999998
sssI433
(dp1742
g3
I5
sg4
(dp1743
g6
F28971440
sg7
F270.11000000000001
sg8
F4188.0500000000002
sg9
F1357.9100000000001
ssg10
(dp1744
g6
F2368288
sg7
F49.549999999999997
sg8
F581.90999999999997
sg9
F1666.9400000000001
ssg12
(dp1745
g6
F12909280
sg7
F279.74000000000001
sg8
F3409.52
sg9
F5789.04
sssI434
(dp1746
g3
I5
sg4
(dp1747
g6
F20026304
sg7
F164.66
sg8
F2618.3000000000002
sg9
F848.61000000000001
ssg10
(dp1748
g6
F2660288
sg7
F23.75
sg8
F309.55000000000001
sg9
F913.50999999999999
ssg12
(dp1749
g6
F12015264
sg7
F173.58000000000001
sg8
F3231.1399999999999
sg9
F6266.7200000000003
sssI435
(dp1750
g3
I5
sg4
(dp1751
g6
F20180464
sg7
F101.5
sg8
F2430.3099999999999
sg9
F754.15999999999997
ssg10
(dp1752
g6
F2386144
sg7
F28.300000000000001
sg8
F370.66000000000003
sg9
F1052.72
ssg12
(dp1753
g6
F12918944
sg7
F165.40000000000001
sg8
F3076.2199999999998
sg9
F6235.8500000000004
sssI436
(dp1754
g3
I5
sg4
(dp1755
g6
F25846496
sg7
F265.74000000000001
sg8
F4315.8100000000004
sg9
F1365.26
ssg10
(dp1756
g6
F2612448
sg7
F39.649999999999999
sg8
F444.55000000000001
sg9
F1419.25
ssg12
(dp1757
g6
F11871264
sg7
F316.38999999999999
sg8
F4608.0699999999997
sg9
F6756.1800000000003
sssI437
(dp1758
g3
I5
sg4
(dp1759
g6
F17013488
sg7
F205.68000000000001
sg8
F2824.0300000000002
sg9
F961.86000000000001
ssg10
(dp1760
g6
F2907024
sg7
F26.329999999999998
sg8
F339.74000000000001
sg9
F1168.5599999999999
ssg12
(dp1761
g6
F13307024
sg7
F195.88
sg8
F3095.29
sg9
F5890.75
sssI438
(dp1762
g3
I5
sg4
(dp1763
g6
F35586368
sg7
F275.44
sg8
F4633.6499999999996
sg9
F1472.6700000000001
ssg10
(dp1764
g6
F2625552
sg7
F59.149999999999999
sg8
F639.25999999999999
sg9
F2057.8299999999999
ssg12
(dp1765
g6
F14244480
sg7
F350.98000000000002
sg8
F5030.1499999999996
sg9
F6980.4700000000003
sssI439
(dp1766
g3
I5
sg4
(dp1767
g6
F23813936
sg7
F282.63
sg8
F5141.5699999999997
sg9
F1640.46
ssg10
(dp1768
g6
F2856624
sg7
F43.280000000000001
sg8
F519.79999999999995
sg9
F1669.51
ssg12
(dp1769
g6
F13120768
sg7
F359.81
sg8
F5157.4899999999998
sg9
F7329.1199999999999
sssI440
(dp1770
g3
I5
sg4
(dp1771
g6
F20098224
sg7
F265.80000000000001
sg8
F4850.8999999999996
sg9
F1500.76
ssg10
(dp1772
g6
F2865328
sg7
F45.600000000000001
sg8
F500.31
sg9
F1797.53
ssg12
(dp1773
g6
F13165744
sg7
F352.77999999999997
sg8
F5119.1700000000001
sg9
F7003.1800000000003
sssI441
(dp1774
g3
I5
sg4
(dp1775
g6
F26261008
sg7
F243.03
sg8
F5200.2399999999998
sg9
F1598.4200000000001
ssg10
(dp1776
g6
F2874400
sg7
F63.240000000000002
sg8
F762.47000000000003
sg9
F2307.3499999999999
ssg12
(dp1777
g6
F15667952
sg7
F366.45999999999998
sg8
F5889.71
sg9
F7571.3800000000001
sssI442
(dp1778
g3
I5
sg4
(dp1779
g6
F26425328
sg7
F293.58999999999997
sg8
F5948.2799999999997
sg9
F1882.3299999999999
ssg10
(dp1780
g6
F3118224
sg7
F69.019999999999996
sg8
F903.72000000000003
sg9
F2697.6599999999999
ssg12
(dp1781
g6
F17066656
sg7
F405.44
sg8
F6360.5
sg9
F8037.5600000000004
sssI443
(dp1782
g3
I5
sg4
(dp1783
g6
F22493184
sg7
F285.38999999999999
sg8
F6072.2299999999996
sg9
F1926.02
ssg10
(dp1784
g6
F3040432
sg7
F3.54
sg8
F45.270000000000003
sg9
F264.98000000000002
ssg12
(dp1785
g6
F7300064
sg7
F12.92
sg8
F432.47000000000003
sg9
F3952.0999999999999
sssI444
(dp1786
g3
I5
sg4
(dp1787
g6
F16057904
sg7
F326.94
sg8
F6348.3900000000003
sg9
F1968.4100000000001
ssg10
(dp1788
g6
F3366752
sg7
F73.640000000000001
sg8
F692.08000000000004
sg9
F2453
ssg12
(dp1789
g6
F18375376
sg7
F448.38
sg8
F6832.3900000000003
sg9
F8208.3199999999997
sssI445
(dp1790
g3
I5
sg4
(dp1791
g6
F20529984
sg7
F151.72
sg8
F3090.5900000000001
sg9
F996.36000000000001
ssg10
(dp1792
g6
F3097408
sg7
F53.159999999999997
sg8
F448.24000000000001
sg9
F2689.5799999999999
ssg12
(dp1793
g6
F16894352
sg7
F238.53999999999999
sg8
F4204.3599999999997
sg9
F2937.46
sssI446
(dp1794
g3
I5
sg4
(dp1795
g6
F26010688
sg7
F185.05000000000001
sg8
F4629.9300000000003
sg9
F1402.25
ssg10
(dp1796
g6
F2525264
sg7
F48.420000000000002
sg8
F659.88
sg9
F2297.71
ssg12
(dp1797
g6
F13747760
sg7
F314.94
sg8
F4967.1300000000001
sg9
F3555.8200000000002
sssI447
(dp1798
g3
I5
sg4
(dp1799
g6
F20304512
sg7
F62.420000000000002
sg8
F2444.8800000000001
sg9
F764.50999999999999
ssg10
(dp1800
g6
F2542384
sg7
F29.649999999999999
sg8
F398.48000000000002
sg9
F1415.8800000000001
ssg12
(dp1801
g6
F13728016
sg7
F188.09
sg8
F3496.6199999999999
sg9
F2362.3800000000001
sssI448
(dp1802
g3
I5
sg4
(dp1803
g6
F20536992
sg7
F186.66999999999999
sg8
F2941.0100000000002
sg9
F911.98000000000002
ssg10
(dp1804
g6
F2771072
sg7
F36.740000000000002
sg8
F488.63999999999999
sg9
F20237.220000000001
ssg12
(dp1805
g6
F15067824
sg7
F183.56999999999999
sg8
F3447.7800000000002
sg9
F2164.1100000000001
sssI449
(dp1806
g3
I5
sg4
(dp1807
g6
F15136016
sg7
F117.2
sg8
F2461.8000000000002
sg9
F758.20000000000005
ssg10
(dp1808
g6
F2504944
sg7
F20.760000000000002
sg8
F218.53999999999999
sg9
F1034.76
ssg12
(dp1809
g6
F13559504
sg7
F185.66
sg8
F3348.5799999999999
sg9
F2221.8499999999999
sssI450
(dp1810
g3
I5
sg4
(dp1811
g6
F25997440
sg7
F219.50999999999999
sg8
F2974.8400000000001
sg9
F942.76999999999998
ssg10
(dp1812
g6
F2783728
sg7
F12.359999999999999
sg8
F146.53999999999999
sg9
F19379.529999999999
ssg12
(dp1813
g6
F15138752
sg7
F197.19
sg8
F3897.5100000000002
sg9
F2635.0799999999999
sssI451
(dp1814
g3
I5
sg4
(dp1815
g6
F29528096
sg7
F142.94
sg8
F3083.6500000000001
sg9
F965.33000000000004
ssg10
(dp1816
g6
F3022624
sg7
F42.310000000000002
sg8
F534.36000000000001
sg9
F1569.71
ssg12
(dp1817
g6
F16455200
sg7
F229.49000000000001
sg8
F4096.5799999999999
sg9
F3012.2199999999998
sssI452
(dp1818
g3
I5
sg4
(dp1819
g6
F25484464
sg7
F245.75999999999999
sg8
F5184.9099999999999
sg9
F1596.9400000000001
ssg10
(dp1820
g6
F2743248
sg7
F57.630000000000003
sg8
F806.5
sg9
F1581.6199999999999
ssg12
(dp1821
g6
F15000432
sg7
F304.13999999999999
sg8
F5457.5900000000001
sg9
F4025.5500000000002
sssI453
(dp1822
g3
I5
sg4
(dp1823
g6
F15374528
sg7
F263.10000000000002
sg8
F5583.6700000000001
sg9
F1741.4300000000001
ssg10
(dp1824
g6
F3031024
sg7
F72.409999999999997
sg8
F798.37
sg9
F2839.6799999999998
ssg12
(dp1825
g6
F16438032
sg7
F426.68000000000001
sg8
F6466.6199999999999
sg9
F4196.3699999999999
sssI454
(dp1826
g3
I5
sg4
(dp1827
g6
F26217952
sg7
F232.05000000000001
sg8
F5032.2299999999996
sg9
F1557.0799999999999
ssg10
(dp1828
g6
F2756368
sg7
F60.280000000000001
sg8
F684.22000000000003
sg9
F2144.46
ssg12
(dp1829
g6
F14977072
sg7
F362.47000000000003
sg8
F5769.3900000000003
sg9
F3940.7199999999998
sssI455
(dp1830
g3
I5
sg4
(dp1831
g6
F14755312
sg7
F261.85000000000002
sg8
F5294.9200000000001
sg9
F1646.0899999999999
ssg10
(dp1832
g6
F2987408
sg7
F73.439999999999998
sg8
F761.25
sg9
F3612.3099999999999
ssg12
(dp1833
g6
F16282960
sg7
F423.94999999999999
sg8
F6334.9200000000001
sg9
F4137.3599999999997
sssI456
(dp1834
g3
I5
sg4
(dp1835
g6
F19679984
sg7
F135.5
sg8
F2964.6500000000001
sg9
F19494.080000000002
ssg10
(dp1836
g6
F2954656
sg7
F40.380000000000003
sg8
F524.51999999999998
sg9
F1652.3599999999999
ssg12
(dp1837
g6
F16107904
sg7
F224.55000000000001
sg8
F4041.6799999999998
sg9
F2446.9299999999998
sssI457
(dp1838
g3
I5
sg4
(dp1839
g6
F26295312
sg7
F258.02999999999997
sg8
F5271.1800000000003
sg9
F1607.4400000000001
ssg10
(dp1840
g6
F2961248
sg7
F70.459999999999994
sg8
F729.55999999999995
sg9
F3309.1900000000001
ssg12
(dp1841
g6
F16099696
sg7
F400.56
sg8
F6212.1800000000003
sg9
F4242.6499999999996
sssI458
(dp1842
g3
I5
sg4
(dp1843
g6
F20611552
sg7
F217.22999999999999
sg8
F5835.3699999999999
sg9
F1764.48
ssg10
(dp1844
g6
F3192352
sg7
F84.030000000000001
sg8
F845.28999999999996
sg9
F2790.2600000000002
ssg12
(dp1845
g6
F17425232
sg7
F394.5
sg8
F6510.6099999999997
sg9
F4982.1999999999998
sssI459
(dp1846
g3
I5
sg4
(dp1847
g6
F20377248
sg7
F231.53999999999999
sg8
F5435.6199999999999
sg9
F1667.6800000000001
ssg10
(dp1848
g6
F2925824
sg7
F72.349999999999994
sg8
F729.33000000000004
sg9
F2515.8200000000002
ssg12
(dp1849
g6
F15942272
sg7
F403.06999999999999
sg8
F6018.0200000000004
sg9
F4697.1000000000004
sssI460
(dp1850
g3
I5
sg4
(dp1851
g6
F29485568
sg7
F120.48
sg8
F3229.8400000000001
sg9
F1056.22
ssg10
(dp1852
g6
F3213072
sg7
F62.93
sg8
F653.36000000000001
sg9
F3361.0999999999999
ssg12
(dp1853
g6
F17505168
sg7
F249.16
sg8
F4370.9300000000003
sg9
F2877.3200000000002
sssI461
(dp1854
g3
I5
sg4
(dp1855
g6
F29574800
sg7
F318.31999999999999
sg8
F6341.8900000000003
sg9
F1933.51
ssg10
(dp1856
g6
F3445088
sg7
F96.170000000000002
sg8
F975.5
sg9
F3638.4899999999998
ssg12
(dp1857
g6
F18810800
sg7
F458.52999999999997
sg8
F6959.9300000000003
sg9
F5088.5299999999997
sssI462
(dp1858
g3
I5
sg4
(dp1859
g6
F21763392
sg7
F229.75
sg8
F3453.9899999999998
sg9
F1109.4100000000001
ssg10
(dp1860
g6
F3166656
sg7
F47.479999999999997
sg8
F612.39999999999998
sg9
F2016.02
ssg12
(dp1861
g6
F17316112
sg7
F234.96000000000001
sg8
F4454.9200000000001
sg9
F2758.1599999999999
sssI463
(dp1862
g3
I5
sg4
(dp1863
g6
F20794752
sg7
F252
sg8
F3585.3099999999999
sg9
F1143.47
ssg10
(dp1864
g6
F3465536
sg7
F51.869999999999997
sg8
F696.74000000000001
sg9
F2313.54
ssg12
(dp1865
g6
F18808288
sg7
F273.13999999999999
sg8
F4938.8000000000002
sg9
F3118.5900000000001
sssI464
(dp1866
g3
I5
sg4
(dp1867
g6
F14710880
sg7
F123.61
sg8
F3191.3099999999999
sg9
F988.26999999999998
ssg10
(dp1868
g6
F3186096
sg7
F46.25
sg8
F577.55999999999995
sg9
F1958.5599999999999
ssg12
(dp1869
g6
F17319232
sg7
F251.83000000000001
sg8
F4413.79
sg9
F2821.6799999999998
sssI465
(dp1870
g3
I5
sg4
(dp1871
g6
F20819856
sg7
F291.38
sg8
F6353.5799999999999
sg9
F1932.05
ssg10
(dp1872
g6
F3413184
sg7
F88.510000000000005
sg8
F983.35000000000002
sg9
F3103.8600000000001
ssg12
(dp1873
g6
F18646880
sg7
F451.56
sg8
F6859.9899999999998
sg9
F5185.7799999999997
sssI466
(dp1874
g3
I5
sg4
(dp1875
g6
F28984544
sg7
F135.59999999999999
sg8
F2586.8299999999999
sg9
F823.88999999999999
ssg10
(dp1876
g6
F2612480
sg7
F31.48
sg8
F423.00999999999999
sg9
F1728.8499999999999
ssg12
(dp1877
g6
F14173552
sg7
F189.52000000000001
sg8
F3587.54
sg9
F2445.4400000000001
sssI467
(dp1878
g3
I5
sg4
(dp1879
g6
F31619616
sg7
F267.69999999999999
sg8
F5164.9499999999998
sg9
F1564.74
ssg10
(dp1880
g6
F2844128
sg7
F70.849999999999994
sg8
F698.96000000000004
sg9
F2399.6700000000001
ssg12
(dp1881
g6
F15501120
sg7
F359.63999999999999
sg8
F5657.46
sg9
F4601.2299999999996
sssI468
(dp1882
g3
I5
sg4
(dp1883
g6
F32908592
sg7
F278.88
sg8
F4754.1300000000001
sg9
F1473.1400000000001
ssg10
(dp1884
g6
F2576848
sg7
F55.979999999999997
sg8
F604.19000000000005
sg9
F2092.1399999999999
ssg12
(dp1885
g6
F13971824
sg7
F299.10000000000002
sg8
F4904.71
sg9
F3851.9400000000001
sssI469
(dp1886
g3
I5
sg4
(dp1887
g6
F20529952
sg7
F97.549999999999997
sg8
F2783.6700000000001
sg9
F860.99000000000001
ssg10
(dp1888
g6
F2866592
sg7
F39.18
sg8
F483.97000000000003
sg9
F1673.3800000000001
ssg12
(dp1889
g6
F15483600
sg7
F213.13999999999999
sg8
F3905.9400000000001
sg9
F2589.6900000000001
sssI470
(dp1890
g3
I5
sg4
(dp1891
g6
F20329776
sg7
F70.519999999999996
sg8
F2502.8000000000002
sg9
F792.29999999999995
ssg10
(dp1892
g6
F2589008
sg7
F31.629999999999999
sg8
F407.63999999999999
sg9
F1433.6800000000001
ssg12
(dp1893
g6
F14011696
sg7
F193.81999999999999
sg8
F3518.3000000000002
sg9
F2447.6199999999999
sssI471
(dp1894
g3
I5
sg4
(dp1895
g6
F20380544
sg7
F130.12
sg8
F2782.4400000000001
sg9
F877.53999999999996
ssg10
(dp1896
g6
F2824016
sg7
F35.969999999999999
sg8
F470.81
sg9
F1502.29
ssg12
(dp1897
g6
F15330864
sg7
F219.44
sg8
F3849.1799999999998
sg9
F2560.29
sssI472
(dp1898
g3
I5
sg4
(dp1899
g6
F31840896
sg7
F227.94
sg8
F3352.1900000000001
sg9
F1062.49
ssg10
(dp1900
g6
F3112640
sg7
F45.43
sg8
F580
sg9
F1689.76
ssg12
(dp1901
g6
F16884096
sg7
F227.28999999999999
sg8
F4402.9499999999998
sg9
F2930.5599999999999
sssI473
(dp1902
g3
I5
sg4
(dp1903
g6
F27706320
sg7
F178.93000000000001
sg8
F3044.1599999999999
sg9
F946.40999999999997
ssg10
(dp1904
g6
F2830944
sg7
F43.439999999999998
sg8
F511.83999999999997
sg9
F1505.01
ssg12
(dp1905
g6
F15385296
sg7
F195.88999999999999
sg8
F3945.2800000000002
sg9
F2704.4400000000001
sssI474
(dp1906
g3
I5
sg4
(dp1907
g6
F33037104
sg7
F131.00999999999999
sg8
F3109.6399999999999
sg9
F999.32000000000005
ssg10
(dp1908
g6
F3072752
sg7
F56.770000000000003
sg8
F624.52999999999997
sg9
F2350.3499999999999
ssg12
(dp1909
g6
F16710816
sg7
F236.19
sg8
F4133.6999999999998
sg9
F3123.04
sssI475
(dp1910
g3
I5
sg4
(dp1911
g6
F26453680
sg7
F297.49000000000001
sg8
F5900.4099999999999
sg9
F1812.1700000000001
ssg10
(dp1912
g6
F3075344
sg7
F77.469999999999999
sg8
F786.70000000000005
sg9
F3292.73
ssg12
(dp1913
g6
F16713328
sg7
F422.23000000000002
sg8
F6502.21
sg9
F4056.9400000000001
sssI476
(dp1914
g3
I5
sg4
(dp1915
g6
F26001408
sg7
F225.16
sg8
F4290.4200000000001
sg9
F1339.78
ssg10
(dp1916
g6
F2421760
sg7
F49.100000000000001
sg8
F530.92999999999995
sg9
F2000.4100000000001
ssg12
(dp1917
g6
F13217280
sg7
F333.86000000000001
sg8
F4793.9399999999996
sg9
F3088.4400000000001
sssI477
(dp1918
g3
I5
sg4
(dp1919
g6
F20229520
sg7
F192.68000000000001
sg8
F4435.6899999999996
sg9
F1350.4400000000001
ssg10
(dp1920
g6
F2433424
sg7
F48.840000000000003
sg8
F516.84000000000003
sg9
F3022.4499999999998
ssg12
(dp1921
g6
F13207984
sg7
F327.10000000000002
sg8
F4784.7299999999996
sg9
F3328.1900000000001
sssI478
(dp1922
g3
I5
sg4
(dp1923
g6
F20406816
sg7
F215.38
sg8
F4624.71
sg9
F1415.9200000000001
ssg10
(dp1924
g6
F2671216
sg7
F62.859999999999999
sg8
F602.22000000000003
sg9
F3484.3800000000001
ssg12
(dp1925
g6
F14537904
sg7
F357.81999999999999
sg8
F5218.4799999999996
sg9
F3410.71
sssI479
(dp1926
g3
I5
sg4
(dp1927
g6
F15174992
sg7
F185.46000000000001
sg8
F4355.8500000000004
sg9
F1362.22
ssg10
(dp1928
g6
F2401552
sg7
F49.609999999999999
sg8
F505.37
sg9
F3110.8400000000001
ssg12
(dp1929
g6
F13067264
sg7
F318.32999999999998
sg8
F4602.79
sg9
F3129.6799999999998
sssI480
(dp1930
g3
I5
sg4
(dp1931
g6
F25695856
sg7
F257.81999999999999
sg8
F4824.6199999999999
sg9
F1524.05
ssg10
(dp1932
g6
F2682208
sg7
F64.219999999999999
sg8
F605.12
sg9
F3182.4400000000001
ssg12
(dp1933
g6
F14605744
sg7
F326.77999999999997
sg8
F5135.0799999999999
sg9
F3790.2399999999998
sssI481
(dp1934
g3
I5
sg4
(dp1935
g6
F29256384
sg7
F352.61000000000001
sg8
F5224.8100000000004
sg9
F1642.4400000000001
ssg10
(dp1936
g6
F2908928
sg7
F71.849999999999994
sg8
F746.50999999999999
sg9
F2867.3800000000001
ssg12
(dp1937
g6
F15948784
sg7
F382.16000000000003
sg8
F5599.5900000000001
sg9
F4457.1499999999996
sssI482
(dp1938
g3
I5
sg4
(dp1939
g6
F31448960
sg7
F205
sg8
F4980.0500000000002
sg9
F1571.6800000000001
ssg10
(dp1940
g6
F2645104
sg7
F59.740000000000002
sg8
F626.75
sg9
F2571.3299999999999
ssg12
(dp1941
g6
F14416304
sg7
F363.81
sg8
F5001.4399999999996
sg9
F4053.9899999999998
sssI483
(dp1942
g3
I5
sg4
(dp1943
g6
F15789216
sg7
F310.97000000000003
sg8
F5316.4700000000003
sg9
F1650.75
ssg10
(dp1944
g6
F2922016
sg7
F67.060000000000002
sg8
F724.86000000000001
sg9
F2535.4699999999998
ssg12
(dp1945
g6
F15947776
sg7
F370.31999999999999
sg8
F5543.3000000000002
sg9
F4417.25
sssI484
(dp1946
g3
I5
sg4
(dp1947
g6
F22920848
sg7
F160.22999999999999
sg8
F2572.5799999999999
sg9
F830.84000000000003
ssg10
(dp1948
g6
F2650048
sg7
F32.710000000000001
sg8
F428.63
sg9
F1825.25
ssg12
(dp1949
g6
F14462160
sg7
F201.30000000000001
sg8
F3416.1599999999999
sg9
F2338.9899999999998
sssI485
(dp1950
g3
I5
sg4
(dp1951
g6
F20408832
sg7
F142.19999999999999
sg8
F2847.71
sg9
F924.54999999999995
ssg10
(dp1952
g6
F2891600
sg7
F41.049999999999997
sg8
F483.74000000000001
sg9
F2266.9699999999998
ssg12
(dp1953
g6
F15792384
sg7
F223.02000000000001
sg8
F3751.6500000000001
sg9
F2477.23
sssI486
(dp1954
g3
I5
sg4
(dp1955
g6
F25714864
sg7
F199.61000000000001
sg8
F3848.9899999999998
sg9
F1201.4200000000001
ssg10
(dp1956
g6
F2086256
sg7
F36.329999999999998
sg8
F401.73000000000002
sg9
F2377.8200000000002
ssg12
(dp1957
g6
F11465680
sg7
F259.14999999999998
sg8
F3875.6900000000001
sg9
F2947.1399999999999
sssI487
(dp1958
g3
I5
sg4
(dp1959
g6
F28976352
sg7
F83.799999999999997
sg8
F2419.6799999999998
sg9
F767.89999999999998
ssg10
(dp1960
g6
F2321504
sg7
F26.07
sg8
F341.27999999999997
sg9
F1232.6300000000001
ssg12
(dp1961
g6
F12692272
sg7
F168.31999999999999
sg8
F2918.2800000000002
sg9
F2010.7
sssI488
(dp1962
g3
I5
sg4
(dp1963
g6
F29667584
sg7
F137.37
sg8
F2320.9699999999998
sg9
F761.76999999999998
ssg10
(dp1964
g6
F2045680
sg7
F25.489999999999998
sg8
F346.58999999999997
sg9
F1252.1400000000001
ssg12
(dp1965
g6
F11326960
sg7
F145.38
sg8
F2695.02
sg9
F1875.1700000000001
sssI489
(dp1966
g3
I5
sg4
(dp1967
g6
F25821744
sg7
F111.7
sg8
F2543.8200000000002
sg9
F780.59000000000003
ssg10
(dp1968
g6
F2334016
sg7
F29.530000000000001
sg8
F408.10000000000002
sg9
F1756.49
ssg12
(dp1969
g6
F12681056
sg7
F162.86000000000001
sg8
F3012.9400000000001
sg9
F2115.1300000000001
sssI490
(dp1970
g3
I5
sg4
(dp1971
g6
F15128880
sg7
F85.730000000000004
sg8
F2000.9100000000001
sg9
F644.09000000000003
ssg10
(dp1972
g6
F2058784
sg7
F28.68
sg8
F297.56
sg9
F1138.3499999999999
ssg12
(dp1973
g6
F11320752
sg7
F140.78
sg8
F2517.3400000000001
sg9
F2428.52
sssI491
(dp1974
g3
I5
sg4
(dp1975
g6
F19956064
sg7
F94.719999999999999
sg8
F2373.6599999999999
sg9
F751.83000000000004
ssg10
(dp1976
g6
F2292144
sg7
F26.010000000000002
sg8
F340.57999999999998
sg9
F923.71000000000004
ssg12
(dp1977
g6
F12542352
sg7
F165.68000000000001
sg8
F2876.3299999999999
sg9
F1986.78
sssI492
(dp1978
g3
I5
sg4
(dp1979
g6
F25670704
sg7
F174.15000000000001
sg8
F2709.8200000000002
sg9
F869
ssg10
(dp1980
g6
F2578592
sg7
F35.219999999999999
sg8
F454.91000000000003
sg9
F1175.48
ssg12
(dp1981
g6
F13996176
sg7
F186.33000000000001
sg8
F3428.5100000000002
sg9
F2256.46
sssI493
(dp1982
g3
I5
sg4
(dp1983
g6
F27746208
sg7
F162.69999999999999
sg8
F2438.5700000000002
sg9
F795.04999999999995
ssg10
(dp1984
g6
F2298608
sg7
F27.109999999999999
sg8
F348
sg9
F949.51999999999998
ssg12
(dp1985
g6
F12581584
sg7
F166.97
sg8
F2895.9899999999998
sg9
F2010.0599999999999
sssI494
(dp1986
g3
I5
sg4
(dp1987
g6
F25817648
sg7
F203.09999999999999
sg8
F2685.8800000000001
sg9
F936.04999999999995
ssg10
(dp1988
g6
F2543328
sg7
F34.020000000000003
sg8
F470.88999999999999
sg9
F1313.26
ssg12
(dp1989
g6
F13836576
sg7
F175.84999999999999
sg8
F3366.6399999999999
sg9
F2354.2600000000002
sssI495
(dp1990
g3
I5
sg4
(dp1991
g6
F20289312
sg7
F90.780000000000001
sg8
F2437.1599999999999
sg9
F772.57000000000005
ssg10
(dp1992
g6
F2555312
sg7
F30.800000000000001
sg8
F393.08999999999997
sg9
F1316.3499999999999
ssg12
(dp1993
g6
F13844960
sg7
F190.13999999999999
sg8
F3228.96
sg9
F2308.4299999999998
sssI496
(dp1994
g3
I5
sg4
(dp1995
g6
F25569872
sg7
F109.51000000000001
sg8
F2363.8899999999999
sg9
F766.40999999999997
ssg10
(dp1996
g6
F2512160
sg7
F41.990000000000002
sg8
F416.72000000000003
sg9
F1601.4100000000001
ssg12
(dp1997
g6
F13663456
sg7
F183.38
sg8
F3156.6199999999999
sg9
F2471.9000000000001
sssI497
(dp1998
g3
I5
sg4
(dp1999
g6
F25781072
sg7
F204.22
sg8
F5090.3199999999997
sg9
F1530.9300000000001
ssg10
(dp2000
g6
F2749664
sg7
F62.729999999999997
sg8
F637.58000000000004
sg9
F2421.1500000000001
ssg12
(dp2001
g6
F15004480
sg7
F370.42000000000002
sg8
F5491
sg9
F3787.23
sssI498
(dp2002
g3
I5
sg4
(dp2003
g6
F29256768
sg7
F203.72
sg8
F4503.8500000000004
sg9
F1407.2
ssg10
(dp2004
g6
F2468768
sg7
F55.130000000000003
sg8
F553.76999999999998
sg9
F1896.6600000000001
ssg12
(dp2005
g6
F13453824
sg7
F318.99000000000001
sg8
F4757.8900000000003
sg9
F3372
sssI499
(dp2006
g3
I5
sg4
(dp2007
g6
F26194256
sg7
F190.55000000000001
sg8
F5117.5699999999997
sg9
F1519.27
ssg10
(dp2008
g6
F2761648
sg7
F61.229999999999997
sg8
F630.77999999999997
sg9
F2736.0100000000002
ssg12
(dp2009
g6
F14988112
sg7
F370.19999999999999
sg8
F5371.4899999999998
sg9
F3625.0500000000002
sssI500
(dp2010
g3
I5
sg4
(dp2011
g6
F20042928
sg7
F197.09999999999999
sg8
F4355.5600000000004
sg9
F1317.3399999999999
ssg10
(dp2012
g6
F2481664
sg7
F51.340000000000003
sg8
F549.51999999999998
sg9
F2064.0799999999999
ssg12
(dp2013
g6
F13470256
sg7
F345.86000000000001
sg8
F4925.8000000000002
sg9
F3481.46
sssI501
(dp2014
g3
I5
sg4
(dp2015
g6
F26105968
sg7
F217.94
sg8
F5060.5100000000002
sg9
F1539.0599999999999
ssg10
(dp2016
g6
F2723952
sg7
F63.100000000000001
sg8
F622.28999999999996
sg9
F2893.4099999999999
ssg12
(dp2017
g6
F14815152
sg7
F359.75
sg8
F5258.1300000000001
sg9
F3647.9499999999998
sssI502
(dp2018
g3
I5
sg4
(dp2019
g6
F32147680
sg7
F243.66999999999999
sg8
F5606.7600000000002
sg9
F1722.3599999999999
ssg10
(dp2020
g6
F2996128
sg7
F73.920000000000002
sg8
F740.72000000000003
sg9
F3322.25
ssg12
(dp2021
g6
F16379328
sg7
F387.25999999999999
sg8
F5807.54
sg9
F3983.73
sssI503
(dp2022
g3
I5
sg4
(dp2023
g6
F26464272
sg7
F265.25999999999999
sg8
F5187.6400000000003
sg9
F1677.9200000000001
ssg10
(dp2024
g6
F2730672
sg7
F62.079999999999998
sg8
F635.64999999999998
sg9
F3036.0300000000002
ssg12
(dp2025
g6
F14853664
sg7
F371.63999999999999
sg8
F5247.2799999999997
sg9
F3657.3200000000002
sssI504
(dp2026
g3
I5
sg4
(dp2027
g6
F27074640
sg7
F272.27999999999997
sg8
F5780.9899999999998
sg9
F1826.8800000000001
ssg10
(dp2028
g6
F2961264
sg7
F75.980000000000004
sg8
F747.55999999999995
sg9
F2993.5100000000002
ssg12
(dp2029
g6
F16203840
sg7
F395.91000000000003
sg8
F5678.4200000000001
sg9
F4130.2299999999996
sssI505
(dp2030
g3
I5
sg4
(dp2031
g6
F14523760
sg7
F238.43000000000001
sg8
F5535.2200000000003
sg9
F1712.72
ssg10
(dp2032
g6
F2974336
sg7
F73.109999999999999
sg8
F764.47000000000003
sg9
F2847.1599999999999
ssg12
(dp2033
g6
F16214464
sg7
F380.48000000000002
sg8
F5649.4700000000003
sg9
F4167.3699999999999
sssI506
(dp2034
g3
I5
sg4
(dp2035
g6
F28816416
sg7
F202.34
sg8
F4561.5299999999997
sg9
F1407.28
ssg10
(dp2036
g6
F2413472
sg7
F50.799999999999997
sg8
F506.18000000000001
sg9
F2614.1700000000001
ssg12
(dp2037
g6
F13058000
sg7
F303.12
sg8
F4594.8299999999999
sg9
F3297.0599999999999
sssI507
(dp2038
g3
I5
sg4
(dp2039
g6
F29753920
sg7
F144.80000000000001
sg8
F2267.96
sg9
F752.25999999999999
ssg10
(dp2040
g6
F2138576
sg7
F22.48
sg8
F305.82999999999998
sg9
F807.78999999999996
ssg12
(dp2041
g6
F11732576
sg7
F149.94
sg8
F2652.3499999999999
sg9
F1812.3199999999999
sssI508
(dp2042
g3
I5
sg4
(dp2043
g6
F28885456
sg7
F139.99000000000001
sg8
F2396.3499999999999
sg9
F774.08000000000004
ssg10
(dp2044
g6
F2368960
sg7
F26.550000000000001
sg8
F362.33999999999997
sg9
F1115.75
ssg12
(dp2045
g6
F12919648
sg7
F174.03
sg8
F2969.6500000000001
sg9
F2128.71
sssI509
(dp2046
g3
I5
sg4
(dp2047
g6
F14091472
sg7
F139
sg8
F2444.8299999999999
sg9
F798.83000000000004
ssg10
(dp2048
g6
F2384752
sg7
F27.280000000000001
sg8
F370.75
sg9
F1146.3800000000001
ssg12
(dp2049
g6
F12930768
sg7
F161.63
sg8
F3056.3299999999999
sg9
F2019.9200000000001
sssI510
(dp2050
g3
I5
sg4
(dp2051
g6
F28371728
sg7
F89.049999999999997
sg8
F2599.3299999999999
sg9
F828.51999999999998
ssg10
(dp2052
g6
F2626000
sg7
F33.140000000000001
sg8
F425.80000000000001
sg9
F1260.0799999999999
ssg12
(dp2053
g6
F14278464
sg7
F197.47
sg8
F3342.3600000000001
sg9
F2485.0700000000002
sssI511
(dp2054
g3
I5
sg4
(dp2055
g6
F7449776
sg7
F106.26000000000001
sg8
F2777.4200000000001
sg9
F853.63
ssg10
(dp2056
g6
F2656800
sg7
F33.060000000000002
sg8
F451.10000000000002
sg9
F1236.3099999999999
ssg12
(dp2057
g6
F14415696
sg7
F197.77000000000001
sg8
F3806.98
sg9
F2637.8099999999999
sssI512
(dp2058
g3
I5
sg4
(dp2059
g6
F20016240
sg7
F92.530000000000001
sg8
F2844.9499999999998
sg9
F930.92999999999995
ssg10
(dp2060
g6
F2901424
sg7
F50.07
sg8
F554.98000000000002
sg9
F2241.3499999999999
ssg12
(dp2061
g6
F15812544
sg7
F219.47999999999999
sg8
F3898.48
sg9
F2838.6100000000001
sssI513
(dp2062
g3
I5
sg4
(dp2063
g6
F8101184
sg7
F151.25999999999999
sg8
F2947.8299999999999
sg9
F919.41999999999996
ssg10
(dp2064
g6
F2920128
sg7
F39.539999999999999
sg8
F494.91000000000003
sg9
F1465.4200000000001
ssg12
(dp2065
g6
F15822608
sg7
F219.34999999999999
sg8
F3980.6500000000001
sg9
F2794.3699999999999
sssI514
(dp2066
g3
I5
sg4
(dp2067
g6
F7802960
sg7
F134.09
sg8
F2899.8899999999999
sg9
F909.58000000000004
ssg10
(dp2068
g6
F3150736
sg7
F32.950000000000003
sg8
F417.98000000000002
sg9
F1312.8499999999999
ssg12
(dp2069
g6
F14611600
sg7
F229.69999999999999
sg8
F4164.6499999999996
sg9
F2680.9400000000001
sssI515
(dp2070
g3
I5
sg4
(dp2071
g6
F8045152
sg7
F216.66999999999999
sg8
F3062.4099999999999
sg9
F955.78999999999996
ssg10
(dp2072
g6
F2875360
sg7
F39.189999999999998
sg8
F508.55000000000001
sg9
F1505.02
ssg12
(dp2073
g6
F15667616
sg7
F207.24000000000001
sg8
F4038.5100000000002
sg9
F2560.0999999999999
sssI516
(dp2074
g3
I5
sg4
(dp2075
g6
F19675904
sg7
F115.58
sg8
F2419.23
sg9
F762.15999999999997
ssg10
(dp2076
g6
F2313376
sg7
F25.609999999999999
sg8
F341.61000000000001
sg9
F1215.78
ssg12
(dp2077
g6
F12557008
sg7
F165.94999999999999
sg8
F3145.04
sg9
F2081.1799999999998
sssI517
(dp2078
g3
I5
sg4
(dp2079
g6
F6525472
sg7
F137.31
sg8
F2490.9299999999998
sg9
F777.50999999999999
ssg10
(dp2080
g6
F2322432
sg7
F26.739999999999998
sg8
F361.32999999999998
sg9
F1145.27
ssg12
(dp2081
g6
F12568464
sg7
F159.33000000000001
sg8
F3249.1999999999998
sg9
F2176.4000000000001
sssI518
(dp2082
g3
I5
sg4
(dp2083
g6
F6216048
sg7
F221.47999999999999
sg8
F4034.8800000000001
sg9
F1230.01
ssg10
(dp2084
g6
F2551424
sg7
F35.759999999999998
sg8
F398.55000000000001
sg9
F1523.05
ssg12
(dp2085
g6
F11501408
sg7
F320.5
sg8
F4928.2299999999996
sg9
F3047.3800000000001
sssI519
(dp2086
g3
I5
sg4
(dp2087
g6
F6917744
sg7
F188.13999999999999
sg8
F4171.1899999999996
sg9
F1287.0799999999999
ssg10
(dp2088
g6
F2276736
sg7
F41.579999999999998
sg8
F499.10000000000002
sg9
F1692.24
ssg12
(dp2089
g6
F12401888
sg7
F295.24000000000001
sg8
F4674.4399999999996
sg9
F3010.1900000000001
sssI520
(dp2090
g3
I5
sg4
(dp2091
g6
F19965984
sg7
F199.19
sg8
F4605.7299999999996
sg9
F1380.1600000000001
ssg10
(dp2092
g6
F2560784
sg7
F53.200000000000003
sg8
F584.15999999999997
sg9
F2363.6599999999999
ssg12
(dp2093
g6
F13879712
sg7
F325.81999999999999
sg8
F5273.4499999999998
sg9
F3182.5700000000002
sssI521
(dp2094
g3
I5
sg4
(dp2095
g6
F20939872
sg7
F286.26999999999998
sg8
F5032.8000000000002
sg9
F1514.8800000000001
ssg10
(dp2096
g6
F2799952
sg7
F42.100000000000001
sg8
F457.45999999999998
sg9
F2316.75
ssg12
(dp2097
g6
F12774496
sg7
F323.06
sg8
F5327.8800000000001
sg9
F3333.4299999999998
sssI522
(dp2098
g3
I5
sg4
(dp2099
g6
F23776832
sg7
F196.41
sg8
F4541.2399999999998
sg9
F1351.74
ssg10
(dp2100
g6
F2532672
sg7
F55.579999999999998
sg8
F585.98000000000002
sg9
F2626.96
ssg12
(dp2101
g6
F13691168
sg7
F298.92000000000002
sg8
F5055.6499999999996
sg9
F3151.9099999999999
sssI523
(dp2102
g3
I5
sg4
(dp2103
g6
F6879424
sg7
F320.81
sg8
F4815.3999999999996
sg9
F1464.1900000000001
ssg10
(dp2104
g6
F2814704
sg7
F45.240000000000002
sg8
F460.79000000000002
sg9
F2384.5999999999999
ssg12
(dp2105
g6
F12757840
sg7
F340.83999999999997
sg8
F5557.7700000000004
sg9
F3644.9099999999999
sssI524
(dp2106
g3
I5
sg4
(dp2107
g6
F7087696
sg7
F217.05000000000001
sg8
F4564.7399999999998
sg9
F1362.48
ssg10
(dp2108
g6
F2538464
sg7
F54.170000000000002
sg8
F558.52999999999997
sg9
F2467.1799999999998
ssg12
(dp2109
g6
F13695248
sg7
F327.16000000000003
sg8
F5137.8100000000004
sg9
F3746.1399999999999
sssI525
(dp2110
g3
I5
sg4
(dp2111
g6
F6789344
sg7
F170.34999999999999
sg8
F4644.5200000000004
sg9
F1444.8199999999999
ssg10
(dp2112
g6
F2773968
sg7
F40.899999999999999
sg8
F450.87
sg9
F2362.6900000000001
ssg12
(dp2113
g6
F12616640
sg7
F318.79000000000002
sg8
F5191.1700000000001
sg9
F3561.8499999999999
sssI526
(dp2114
g3
I5
sg4
(dp2115
g6
F19727760
sg7
F229.56999999999999
sg8
F4565.2299999999996
sg9
F1457.5899999999999
ssg10
(dp2116
g6
F2736960
sg7
F59.539999999999999
sg8
F662.23000000000002
sg9
F3334.1999999999998
ssg12
(dp2117
g6
F14852848
sg7
F361.08999999999997
sg8
F5462.8000000000002
sg9
F3755.3400000000001
sssI527
(dp2118
g3
I5
sg4
(dp2119
g6
F7662224
sg7
F170.53999999999999
sg8
F4853.0299999999997
sg9
F1493.49
ssg10
(dp2120
g6
F2749024
sg7
F55.700000000000003
sg8
F683.90999999999997
sg9
F3400.0300000000002
ssg12
(dp2121
g6
F14844624
sg7
F357.17000000000002
sg8
F5556.4799999999996
sg9
F3825.9299999999998
sssI528
(dp2122
g3
I5
sg4
(dp2123
g6
F7347584
sg7
F204.83000000000001
sg8
F2722.8600000000001
sg9
F885.39999999999998
ssg10
(dp2124
g6
F2974464
sg7
F27.649999999999999
sg8
F370.89999999999998
sg9
F1133.1099999999999
ssg12
(dp2125
g6
F13675616
sg7
F217.09999999999999
sg8
F4052.3899999999999
sg9
F2629.52
sssI529
(dp2126
g3
I5
sg4
(dp2127
g6
F7590032
sg7
F106.79000000000001
sg8
F2566.0999999999999
sg9
F836.23000000000002
ssg10
(dp2128
g6
F2706496
sg7
F43.539999999999999
sg8
F477
sg9
F2248.75
ssg12
(dp2129
g6
F14745216
sg7
F201.13
sg8
F3643.1100000000001
sg9
F2547.1199999999999
sssI530
(dp2130
g3
I5
sg4
(dp2131
g6
F20243616
sg7
F62.340000000000003
sg8
F2951.23
sg9
F928.35000000000002
ssg10
(dp2132
g6
F2998768
sg7
F46.539999999999999
sg8
F618.52999999999997
sg9
F2466.8299999999999
ssg12
(dp2133
g6
F16264176
sg7
F233.66999999999999
sg8
F4127.8699999999999
sg9
F2868.54
sssI531
(dp2134
g3
I5
sg4
(dp2135
g6
F20012576
sg7
F142.22
sg8
F2857.4499999999998
sg9
F905.53999999999996
ssg10
(dp2136
g6
F3225200
sg7
F37.719999999999999
sg8
F500.82999999999998
sg9
F2204.2600000000002
ssg12
(dp2137
g6
F15061216
sg7
F239.86000000000001
sg8
F4231.4099999999999
sg9
F2950.46
sssI532
(dp2138
g3
I5
sg4
(dp2139
g6
F20759520
sg7
F122.48999999999999
sg8
F3161
sg9
F1015.45
ssg10
(dp2140
g6
F2955088
sg7
F40.009999999999998
sg8
F556.19000000000005
sg9
F2120.6300000000001
ssg12
(dp2141
g6
F16086448
sg7
F213.15000000000001
sg8
F4104.1899999999996
sg9
F2862.98
sssI533
(dp2142
g3
I5
sg4
(dp2143
g6
F8023120
sg7
F183.59
sg8
F3127.5999999999999
sg9
F953.34000000000003
ssg10
(dp2144
g6
F3241136
sg7
F35.5
sg8
F448.92000000000002
sg9
F1936.45
ssg12
(dp2145
g6
F15048672
sg7
F219.13999999999999
sg8
F4230.5900000000001
sg9
F2809.5900000000001
sssI534
(dp2146
g3
I5
sg4
(dp2147
g6
F8249072
sg7
F179.06
sg8
F2955
sg9
F944.67999999999995
ssg10
(dp2148
g6
F2972864
sg7
F47.710000000000001
sg8
F597.71000000000004
sg9
F1341.8800000000001
ssg12
(dp2149
g6
F16088512
sg7
F224.90000000000001
sg8
F4093.77
sg9
F2660.02
sssI535
(dp2150
g3
I5
sg4
(dp2151
g6
F7934736
sg7
F269.91000000000003
sg8
F5318.79
sg9
F1625.49
ssg10
(dp2152
g6
F3195072
sg7
F61.579999999999998
sg8
F607.87
sg9
F2637.71
ssg12
(dp2153
g6
F14848496
sg7
F434.43000000000001
sg8
F6217.2200000000003
sg9
F3923.4499999999998
sssI536
(dp2154
g3
I5
sg4
(dp2155
g6
F19740384
sg7
F209.84999999999999
sg8
F4207.7299999999996
sg9
F1285.02
ssg10
(dp2156
g6
F2394480
sg7
F49.490000000000002
sg8
F511.75999999999999
sg9
F2229.2399999999998
ssg12
(dp2157
g6
F12945968
sg7
F304.72000000000003
sg8
F4946.1899999999996
sg9
F3285.6700000000001
sssI537
(dp2158
g3
I5
sg4
(dp2159
g6
F19608480
sg7
F157.31
sg8
F2453.6100000000001
sg9
F783.67999999999995
ssg10
(dp2160
g6
F2629600
sg7
F29.359999999999999
sg8
F314.69999999999999
sg9
F1259.52
ssg12
(dp2161
g6
F11920112
sg7
F173.72
sg8
F3261.9699999999998
sg9
F2016.4300000000001
sssI538
(dp2162
g3
I5
sg4
(dp2163
g6
F32814816
sg7
F242.78
sg8
F4538.9399999999996
sg9
F1414.5999999999999
ssg10
(dp2164
g6
F2350864
sg7
F46.380000000000003
sg8
F525.76999999999998
sg9
F2035.8199999999999
ssg12
(dp2165
g6
F12796288
sg7
F315.81
sg8
F4792.0100000000002
sg9
F3311.5700000000002
sssI539
(dp2166
g3
I5
sg4
(dp2167
g6
F6439600
sg7
F200.93000000000001
sg8
F4550.4399999999996
sg9
F1355.6600000000001
ssg10
(dp2168
g6
F2649936
sg7
F35.259999999999998
sg8
F426.06999999999999
sg9
F1996.3800000000001
ssg12
(dp2169
g6
F11906832
sg7
F342.37
sg8
F5031.8599999999997
sg9
F3514.6399999999999
sssI540
(dp2170
g3
I5
sg4
(dp2171
g6
F6637808
sg7
F146.53
sg8
F3891.3800000000001
sg9
F1169.0899999999999
ssg10
(dp2172
g6
F2368848
sg7
F43.460000000000001
sg8
F519.78999999999996
sg9
F2210.8099999999999
ssg12
(dp2173
g6
F12795296
sg7
F289.05000000000001
sg8
F4825.6800000000003
sg9
F3323.6399999999999
sssI541
(dp2174
g3
I5
sg4
(dp2175
g6
F6343024
sg7
F265.26999999999998
sg8
F4425.1400000000003
sg9
F1343.3499999999999
ssg10
(dp2176
g6
F2599360
sg7
F36.57
sg8
F416.11000000000001
sg9
F1858.26
ssg12
(dp2177
g6
F11776080
sg7
F325.42000000000002
sg8
F4928.8999999999996
sg9
F3475.1199999999999
sssI542
(dp2178
g3
I5
sg4
(dp2179
g6
F19671584
sg7
F284.39999999999998
sg8
F4944.5900000000001
sg9
F1524.3599999999999
ssg10
(dp2180
g6
F2898576
sg7
F43.140000000000001
sg8
F505.24000000000001
sg9
F2489.02
ssg12
(dp2181
g6
F13172592
sg7
F381.87
sg8
F5500.6899999999996
sg9
F3485.04
sssI543
(dp2182
g3
I5
sg4
(dp2183
g6
F28685200
sg7
F258.42000000000002
sg8
F5038.9799999999996
sg9
F1544.1600000000001
ssg10
(dp2184
g6
F2615408
sg7
F52.899999999999999
sg8
F624.51999999999998
sg9
F2585.7600000000002
ssg12
(dp2185
g6
F14121312
sg7
F334.75999999999999
sg8
F5236.1099999999997
sg9
F3569.8400000000001
sssI544
(dp2186
g3
I5
sg4
(dp2187
g6
F19652704
sg7
F129.06
sg8
F2820.8299999999999
sg9
F891.00999999999999
ssg10
(dp2188
g6
F2848560
sg7
F27.27
sg8
F370.99000000000001
sg9
F1276.6900000000001
ssg12
(dp2189
g6
F13010640
sg7
F202.94
sg8
F3704.3600000000001
sg9
F2516.5500000000002
sssI545
(dp2190
g3
I5
sg4
(dp2191
g6
F7009488
sg7
F53.289999999999999
sg8
F2738.98
sg9
F845.89999999999998
ssg10
(dp2192
g6
F2862736
sg7
F28.260000000000002
sg8
F372.10000000000002
sg9
F1296.74
ssg12
(dp2193
g6
F13033744
sg7
F204.75999999999999
sg8
F3713.2800000000002
sg9
F2465.6999999999998
sssI546
(dp2194
g3
I5
sg4
(dp2195
g6
F19226192
sg7
F105.92
sg8
F2377.5799999999999
sg9
F742.23000000000002
ssg10
(dp2196
g6
F2203712
sg7
F24.359999999999999
sg8
F337.74000000000001
sg9
F1040.4100000000001
ssg12
(dp2197
g6
F12127552
sg7
F150.50999999999999
sg8
F2879.75
sg9
F1890.8800000000001
sssI547
(dp2198
g3
I5
sg4
(dp2199
g6
F6274224
sg7
F111.55
sg8
F2403.48
sg9
F735.63999999999999
ssg10
(dp2200
g6
F2213600
sg7
F23.43
sg8
F334.50999999999999
sg9
F1176.1400000000001
ssg12
(dp2201
g6
F12099024
sg7
F156.28999999999999
sg8
F2899.6900000000001
sg9
F1929.0799999999999
sssI548
(dp2202
g3
I5
sg4
(dp2203
g6
F5966160
sg7
F260.31999999999999
sg8
F3825.3000000000002
sg9
F1172.4200000000001
ssg10
(dp2204
g6
F2451152
sg7
F29.98
sg8
F353.69
sg9
F1739.03
ssg12
(dp2205
g6
F11044752
sg7
F297.19999999999999
sg8
F4318.6899999999996
sg9
F3161.5500000000002
sssI549
(dp2206
g3
I5
sg4
(dp2207
g6
F6206784
sg7
F194.40000000000001
sg8
F4129.5
sg9
F1268.29
ssg10
(dp2208
g6
F2176464
sg7
F42.100000000000001
sg8
F448.55000000000001
sg9
F1951.79
ssg12
(dp2209
g6
F11947168
sg7
F255.93000000000001
sg8
F3988.54
sg9
F3049.9400000000001
sssI550
(dp2210
g3
I5
sg4
(dp2211
g6
F19603040
sg7
F132.78999999999999
sg8
F2405.9299999999998
sg9
F790.17999999999995
ssg10
(dp2212
g6
F2463200
sg7
F31.699999999999999
sg8
F417.56999999999999
sg9
F1158.0899999999999
ssg12
(dp2213
g6
F13396400
sg7
F185.08000000000001
sg8
F3239.29
sg9
F2274.3000000000002
sssI551
(dp2214
g3
I5
sg4
(dp2215
g6
F10731808
sg7
F113.33
sg8
F2468.02
sg9
F783.42999999999995
ssg10
(dp2216
g6
F2691584
sg7
F31.710000000000001
sg8
F324.26999999999998
sg9
F1509.1199999999999
ssg12
(dp2217
g6
F12327104
sg7
F184.03
sg8
F3187.6700000000001
sg9
F2271.79
sssI552
(dp2218
g3
I5
sg4
(dp2219
g6
F29232320
sg7
F156.75
sg8
F2557.71
sg9
F811.01999999999998
ssg10
(dp2220
g6
F2425216
sg7
F28.579999999999998
sg8
F394.79000000000002
sg9
F1069.0899999999999
ssg12
(dp2221
g6
F13225072
sg7
F168.30000000000001
sg8
F3131.9200000000001
sg9
F2073.98
sssI553
(dp2222
g3
I5
sg4
(dp2223
g6
F6647920
sg7
F171.97999999999999
sg8
F2669.1599999999999
sg9
F831.67999999999995
ssg10
(dp2224
g6
F2706432
sg7
F24.420000000000002
sg8
F310.44
sg9
F1005.4
ssg12
(dp2225
g6
F12301904
sg7
F178.47
sg8
F3313.73
sg9
F2071.5700000000002
sssI554
(dp2226
g3
I5
sg4
(dp2227
g6
F6854096
sg7
F44.299999999999997
sg8
F2272.9200000000001
sg9
F711.12
ssg10
(dp2228
g6
F2430704
sg7
F27.27
sg8
F367.37
sg9
F1201.4000000000001
ssg12
(dp2229
g6
F13226608
sg7
F171.08000000000001
sg8
F3055.04
sg9
F2185.3000000000002
sssI555
(dp2230
g3
I5
sg4
(dp2231
g6
F6551488
sg7
F63.670000000000002
sg8
F2417.1999999999998
sg9
F757.57000000000005
ssg10
(dp2232
g6
F2662480
sg7
F22.59
sg8
F292.07999999999998
sg9
F1035.3099999999999
ssg12
(dp2233
g6
F12198720
sg7
F182.12
sg8
F3099.9499999999998
sg9
F2171.5100000000002
sssI556
(dp2234
g3
I5
sg4
(dp2235
g6
F19279584
sg7
F162.18000000000001
sg8
F3352.2600000000002
sg9
F1018.02
ssg10
(dp2236
g6
F1862512
sg7
F32.159999999999997
sg8
F341.05000000000001
sg9
F1017.09
ssg12
(dp2237
g6
F10859024
sg7
F226.84999999999999
sg8
F3599.4099999999999
sg9
F2436.8600000000001
sssI557
(dp2238
g3
I5
sg4
(dp2239
g6
F19270064
sg7
F88.269999999999996
sg8
F1865.95
sg9
F586.91999999999996
ssg10
(dp2240
g6
F2107264
sg7
F13.83
sg8
F184
sg9
F486.77999999999997
ssg12
(dp2241
g6
F10843312
sg7
F129.31
sg8
F2394.1599999999999
sg9
F1616.71
sssI558
(dp2242
g3
I5
sg4
(dp2243
g6
F20766672
sg7
F243.5
sg8
F3505.96
sg9
F1137.97
ssg10
(dp2244
g6
F1833888
sg7
F27.07
sg8
F350.06999999999999
sg9
F1401.6900000000001
ssg12
(dp2245
g6
F10849600
sg7
F229.11000000000001
sg8
F3381.1100000000001
sg9
F2249.1700000000001
sssI559
(dp2246
g3
I5
sg4
(dp2247
g6
F4777600
sg7
F171.11000000000001
sg8
F3286.96
sg9
F993.54999999999995
ssg10
(dp2248
g6
F2115504
sg7
F21.920000000000002
sg8
F255.38
sg9
F940.66999999999996
ssg12
(dp2249
g6
F10856512
sg7
F252.91
sg8
F3620.04
sg9
F2222.9899999999998
sssI560
(dp2250
g3
I5
sg4
(dp2251
g6
F5264816
sg7
F223.61000000000001
sg8
F3380.71
sg9
F1056.2
ssg10
(dp2252
g6
F1847440
sg7
F28.719999999999999
sg8
F329.35000000000002
sg9
F1527.5
ssg12
(dp2253
g6
F10857440
sg7
F234.34999999999999
sg8
F3556.7800000000002
sg9
F2524.7600000000002
sssI561
(dp2254
g3
I5
sg4
(dp2255
g6
F4688144
sg7
F190.28
sg8
F3411.4099999999999
sg9
F1032.6300000000001
ssg10
(dp2256
g6
F2079920
sg7
F22.109999999999999
sg8
F249.38999999999999
sg9
F1365.1900000000001
ssg12
(dp2257
g6
F10858256
sg7
F239.13
sg8
F3600.4299999999998
sg9
F2394.8800000000001
sssI562
(dp2258
g3
I5
sg4
(dp2259
g6
F19440176
sg7
F255.58000000000001
sg8
F3843.0700000000002
sg9
F1210.5899999999999
ssg10
(dp2260
g6
F2358928
sg7
F29.809999999999999
sg8
F320.26999999999998
sg9
F1773.0999999999999
ssg12
(dp2261
g6
F10955840
sg7
F272.18000000000001
sg8
F4073.7399999999998
sg9
F2661.5700000000002
sssI563
(dp2262
g3
I5
sg4
(dp2263
g6
F27000672
sg7
F232.93000000000001
sg8
F4106.8199999999997
sg9
F1308.5899999999999
ssg10
(dp2264
g6
F2080528
sg7
F38.68
sg8
F424.63999999999999
sg9
F1753.3499999999999
ssg12
(dp2265
g6
F11428480
sg7
F263.24000000000001
sg8
F3885.0599999999999
sg9
F2808.98
sssI564
(dp2266
g3
I5
sg4
(dp2267
g6
F27888032
sg7
F217.93000000000001
sg8
F3881.6100000000001
sg9
F1226.1199999999999
ssg10
(dp2268
g6
F2328512
sg7
F26.809999999999999
sg8
F329.48000000000002
sg9
F1636.96
ssg12
(dp2269
g6
F10922096
sg7
F274.60000000000002
sg8
F3883.1399999999999
sg9
F2564.3299999999999
sssI565
(dp2270
g3
I5
sg4
(dp2271
g6
F5613824
sg7
F211.33000000000001
sg8
F3842.6300000000001
sg9
F1150.1800000000001
ssg10
(dp2272
g6
F2337456
sg7
F26.789999999999999
sg8
F319.61000000000001
sg9
F1729.4400000000001
ssg12
(dp2273
g6
F10938288
sg7
F258.13999999999999
sg8
F3881.9099999999999
sg9
F2598.7800000000002
sssI566
(dp2274
g3
I5
sg4
(dp2275
g6
F19641584
sg7
F193.08000000000001
sg8
F4196.5100000000002
sg9
F1286.75
ssg10
(dp2276
g6
F2289840
sg7
F37.200000000000003
sg8
F525.04999999999995
sg9
F1353.4400000000001
ssg12
(dp2277
g6
F12497424
sg7
F261.36000000000001
sg8
F4132.1199999999999
sg9
F3288.79
sssI567
(dp2278
g3
I5
sg4
(dp2279
g6
F19360736
sg7
F145.27000000000001
sg8
F2418.79
sg9
F768.90999999999997
ssg10
(dp2280
g6
F2531856
sg7
F20.559999999999999
sg8
F285.49000000000001
sg9
F1116.2
ssg12
(dp2281
g6
F11475696
sg7
F168.47999999999999
sg8
F3044.9400000000001
sg9
F2061.9200000000001
sssI568
(dp2282
g3
I5
sg4
(dp2283
g6
F23169760
sg7
F130.36000000000001
sg8
F2527.8800000000001
sg9
F802.87
ssg10
(dp2284
g6
F2257680
sg7
F25.82
sg8
F353.57999999999998
sg9
F1261.7
ssg12
(dp2285
g6
F12365776
sg7
F156.72999999999999
sg8
F2901.5599999999999
sg9
F2051.1100000000001
sssI569
(dp2286
g3
I5
sg4
(dp2287
g6
F6175184
sg7
F75.25
sg8
F2246.7600000000002
sg9
F694.25999999999999
ssg10
(dp2288
g6
F2540768
sg7
F28.399999999999999
sg8
F271.97000000000003
sg9
F1570.6300000000001
ssg12
(dp2289
g6
F11462656
sg7
F167.08000000000001
sg8
F2949.3499999999999
sg9
F2046
sssI570
(dp2290
g3
I5
sg4
(dp2291
g6
F6398416
sg7
F26.84
sg8
F2308.8899999999999
sg9
F699.33000000000004
ssg10
(dp2292
g6
F2264096
sg7
F25.050000000000001
sg8
F486.14999999999998
sg9
F1778.0599999999999
ssg12
(dp2293
g6
F12342352
sg7
F164.22
sg8
F2856.2800000000002
sg9
F2095.98
sssI571
(dp2294
g3
I5
sg4
(dp2295
g6
F6103216
sg7
F92.349999999999994
sg8
F2293.4499999999998
sg9
F715.48000000000002
ssg10
(dp2296
g6
F2501840
sg7
F19.379999999999999
sg8
F260.11000000000001
sg9
F1153.8
ssg12
(dp2297
g6
F11303920
sg7
F167.50999999999999
sg8
F2861.1999999999998
sg9
F2003.8499999999999
sssI572
(dp2298
g3
I5
sg4
(dp2299
g6
F19833792
sg7
F76.549999999999997
sg8
F2626.5700000000002
sg9
F821.05999999999995
ssg10
(dp2300
g6
F2785152
sg7
F24.440000000000001
sg8
F311.01999999999998
sg9
F948.80999999999995
ssg12
(dp2301
g6
F12716464
sg7
F195.96000000000001
sg8
F3321.5100000000002
sg9
F2350.21
sssI573
(dp2302
g3
I5
sg4
(dp2303
g6
F23594224
sg7
F209.68000000000001
sg8
F4771.3299999999999
sg9
F1424.0799999999999
ssg10
(dp2304
g6
F2514352
sg7
F52.210000000000001
sg8
F580.77999999999997
sg9
F2533.8099999999999
ssg12
(dp2305
g6
F13618256
sg7
F335.17000000000002
sg8
F4829.9700000000003
sg9
F3233.9699999999998
sssI574
(dp2306
g3
I5
sg4
(dp2307
g6
F19809360
sg7
F237.55000000000001
sg8
F4766.8299999999999
sg9
F1479.8699999999999
ssg10
(dp2308
g6
F2734752
sg7
F40.68
sg8
F460.10000000000002
sg9
F2373.9200000000001
ssg12
(dp2309
g6
F12541760
sg7
F365.10000000000002
sg8
F4872.4200000000001
sg9
F3310.3499999999999
sssI575
(dp2310
g3
I5
sg4
(dp2311
g6
F6772000
sg7
F241.02000000000001
sg8
F2765.5599999999999
sg9
F878.13
ssg10
(dp2312
g6
F2762704
sg7
F24.329999999999998
sg8
F325.79000000000002
sg9
F1000.73
ssg12
(dp2313
g6
F12577632
sg7
F180.69999999999999
sg8
F3365.0799999999999
sg9
F2074.6399999999999
sssI576
(dp2314
g3
I5
sg4
(dp2315
g6
F19202032
sg7
F171.40000000000001
sg8
F3425.4499999999998
sg9
F1031.49
ssg10
(dp2316
g6
F2194464
sg7
F24.850000000000001
sg8
F274.45999999999998
sg9
F1505.05
ssg12
(dp2317
g6
F10842640
sg7
F258.5
sg8
F3801.6300000000001
sg9
F2532.8000000000002
sssI577
(dp2318
g3
I5
sg4
(dp2319
g6
F19926960
sg7
F102.59999999999999
sg8
F2090.8299999999999
sg9
F687.03999999999996
ssg10
(dp2320
g6
F1920736
sg7
F19.289999999999999
sg8
F276.89999999999998
sg9
F727.49000000000001
ssg12
(dp2321
g6
F10866064
sg7
F127.45999999999999
sg8
F2428.1599999999999
sg9
F1575.6600000000001
sssI578
(dp2322
g3
I5
sg4
(dp2323
g6
F21257536
sg7
F225.66
sg8
F3566.7199999999998
sg9
F1112.05
ssg10
(dp2324
g6
F2150960
sg7
F23.539999999999999
sg8
F282.76999999999998
sg9
F1615.1900000000001
ssg12
(dp2325
g6
F10876976
sg7
F249.15000000000001
sg8
F3626.4400000000001
sg9
F2631.77
sssI579
(dp2326
g3
I5
sg4
(dp2327
g6
F4917088
sg7
F166.96000000000001
sg8
F3402.0900000000001
sg9
F1012.3099999999999
ssg10
(dp2328
g6
F2160896
sg7
F23.84
sg8
F274.22000000000003
sg9
F1630.29
ssg12
(dp2329
g6
F10866576
sg7
F255.16
sg8
F3838.6500000000001
sg9
F2810.0900000000001
sssI580
(dp2330
g3
I5
sg4
(dp2331
g6
F21579168
sg7
F270.35000000000002
sg8
F4048.3600000000001
sg9
F1256.78
ssg10
(dp2332
g6
F2408064
sg7
F30.050000000000001
sg8
F351.70999999999998
sg9
F1919.1800000000001
ssg12
(dp2333
g6
F10950400
sg7
F295.00999999999999
sg8
F4156.5100000000002
sg9
F2857.2800000000002
sssI581
(dp2334
g3
I5
sg4
(dp2335
g6
F19528320
sg7
F152.19
sg8
F2324.8299999999999
sg9
F749.71000000000004
ssg10
(dp2336
g6
F2418736
sg7
F27.399999999999999
sg8
F368.01999999999998
sg9
F1310.3199999999999
ssg12
(dp2337
g6
F13124784
sg7
F180.19999999999999
sg8
F3294.7399999999998
sg9
F2240.4200000000001
sssI582
(dp2338
g3
I5
sg4
(dp2339
g6
F6805152
sg7
F224.74000000000001
sg8
F4195.1999999999998
sg9
F1315.0599999999999
ssg10
(dp2340
g6
F2424144
sg7
F48.530000000000001
sg8
F531.24000000000001
sg9
F2508.9299999999998
ssg12
(dp2341
g6
F13104272
sg7
F295
sg8
F4889.9899999999998
sg9
F3233.77
sssI583
(dp2342
g3
I5
sg4
(dp2343
g6
F7449584
sg7
F101.81
sg8
F2507.8299999999999
sg9
F779.85000000000002
ssg10
(dp2344
g6
F2657040
sg7
F44.579999999999998
sg8
F467.16000000000003
sg9
F2506.1399999999999
ssg12
(dp2345
g6
F14438416
sg7
F198.03999999999999
sg8
F3555.7199999999998
sg9
F2683.9299999999998
sssI584
(dp2346
g3
I5
sg4
(dp2347
g6
F6727568
sg7
F186.63999999999999
sg8
F4330.3100000000004
sg9
F1301.4100000000001
ssg10
(dp2348
g6
F2383248
sg7
F53.710000000000001
sg8
F537.97000000000003
sg9
F2143.4499999999998
ssg12
(dp2349
g6
F12953600
sg7
F293.88999999999999
sg8
F4799.5699999999997
sg9
F3661.0599999999999
sssI585
(dp2350
g3
I5
sg4
(dp2351
g6
F19811808
sg7
F198.59999999999999
sg8
F4784.1300000000001
sg9
F1489.71
ssg10
(dp2352
g6
F2668400
sg7
F56.219999999999999
sg8
F655.17999999999995
sg9
F2317.4899999999998
ssg12
(dp2353
g6
F14475120
sg7
F319
sg8
F5241.4200000000001
sg9
F3692.4400000000001
sssI586
(dp2354
g3
I5
sg4
(dp2355
g6
F19645792
sg7
F112.53
sg8
F2880.0999999999999
sg9
F910.47000000000003
ssg10
(dp2356
g6
F2904928
sg7
F38.439999999999998
sg8
F496.63
sg9
F1724.3499999999999
ssg12
(dp2357
g6
F15830512
sg7
F224.03999999999999
sg8
F3968.4400000000001
sg9
F2904.1500000000001
sssI587
(dp2358
g3
I5
sg4
(dp2359
g6
F20523344
sg7
F145.78999999999999
sg8
F2665.9400000000001
sg9
F847.27999999999997
ssg10
(dp2360
g6
F2630368
sg7
F32.43
sg8
F439.56999999999999
sg9
F1410.4000000000001
ssg12
(dp2361
g6
F14330064
sg7
F198.94999999999999
sg8
F3570.3899999999999
sg9
F2473.5500000000002
sssI588
(dp2362
g3
I5
sg4
(dp2363
g6
F8117424
sg7
F250.18000000000001
sg8
F5463.1999999999998
sg9
F1647.6900000000001
ssg10
(dp2364
g6
F2908912
sg7
F59.960000000000001
sg8
F809.73000000000002
sg9
F2194.25
ssg12
(dp2365
g6
F15813152
sg7
F326.89999999999998
sg8
F5636.4399999999996
sg9
F4083.8099999999999
sssI589
(dp2366
g3
I5
sg4
(dp2367
g6
F7402656
sg7
F158.03
sg8
F2755.02
sg9
F859.24000000000001
ssg10
(dp2368
g6
F2642880
sg7
F34.270000000000003
sg8
F444.29000000000002
sg9
F1298.01
ssg12
(dp2369
g6
F14319776
sg7
F192.88999999999999
sg8
F3738.6900000000001
sg9
F2567.23
sssI590
(dp2370
g3
I5
sg4
(dp2371
g6
F8044512
sg7
F147.63
sg8
F3029.5799999999999
sg9
F955.46000000000004
ssg10
(dp2372
g6
F2871184
sg7
F39.240000000000002
sg8
F512.10000000000002
sg9
F1468.9200000000001
ssg12
(dp2373
g6
F15660000
sg7
F205.93000000000001
sg8
F4032.4499999999998
sg9
F2891.5
sssI591
(dp2374
g3
I5
sg4
(dp2375
g6
F19324176
sg7
F84.060000000000002
sg8
F2132.29
sg9
F677.82000000000005
ssg10
(dp2376
g6
F2076416
sg7
F22.109999999999999
sg8
F287.51999999999998
sg9
F979.72000000000003
ssg12
(dp2377
g6
F11374960
sg7
F143.03
sg8
F2804.3499999999999
sg9
F2015.47
sssI592
(dp2378
g3
I5
sg4
(dp2379
g6
F19316928
sg7
F92.290000000000006
sg8
F2387.8400000000001
sg9
F755.28999999999996
ssg10
(dp2380
g6
F2309152
sg7
F25.77
sg8
F344.05000000000001
sg9
F1070.8299999999999
ssg12
(dp2381
g6
F12576256
sg7
F167.08000000000001
sg8
F3120.2600000000002
sg9
F2273.0500000000002
sssI593
(dp2382
g3
I5
sg4
(dp2383
g6
F28928784
sg7
F98.109999999999999
sg8
F2127.2800000000002
sg9
F695.38999999999999
ssg10
(dp2384
g6
F2038000
sg7
F21.09
sg8
F287.19999999999999
sg9
F919.53999999999996
ssg12
(dp2385
g6
F11192336
sg7
F141.62
sg8
F2723.5799999999999
sg9
F2047.54
sssI594
(dp2386
g3
I5
sg4
(dp2387
g6
F6512816
sg7
F222
sg8
F4533.5200000000004
sg9
F1380.8399999999999
ssg10
(dp2388
g6
F2328496
sg7
F44.240000000000002
sg8
F533.45000000000005
sg9
F1376.4200000000001
ssg12
(dp2389
g6
F12541360
sg7
F285.87
sg8
F4780.1899999999996
sg9
F3028
sssI595
(dp2390
g3
I5
sg4
(dp2391
g6
F5796960
sg7
F81.370000000000005
sg8
F2009.4200000000001
sg9
F623.23000000000002
ssg10
(dp2392
g6
F2051216
sg7
F27.629999999999999
sg8
F293.85000000000002
sg9
F1210.1600000000001
ssg12
(dp2393
g6
F11208848
sg7
F140.68000000000001
sg8
F2783.3499999999999
sg9
F2245.9000000000001
sssI596
(dp2394
g3
I5
sg4
(dp2395
g6
F6444704
sg7
F198.02000000000001
sg8
F4216.9499999999998
sg9
F1314.1800000000001
ssg10
(dp2396
g6
F2276736
sg7
F43.020000000000003
sg8
F505.68000000000001
sg9
F1616.71
ssg12
(dp2397
g6
F12392480
sg7
F294.66000000000003
sg8
F4703.6199999999999
sg9
F3078.27
sssI597
(dp2398
g3
I5
sg4
(dp2399
g6
F19872704
sg7
F220.81
sg8
F4766.9099999999999
sg9
F1470.9100000000001
ssg10
(dp2400
g6
F2568272
sg7
F53.549999999999997
sg8
F584.64999999999998
sg9
F2308.3800000000001
ssg12
(dp2401
g6
F13862096
sg7
F341.73000000000002
sg8
F5306.6400000000003
sg9
F3513.8000000000002
sssI598
(dp2402
g3
I5
sg4
(dp2403
g6
F20210128
sg7
F191.88999999999999
sg8
F4332.3400000000001
sg9
F1371.75
ssg10
(dp2404
g6
F2289840
sg7
F44.950000000000003
sg8
F499.41000000000003
sg9
F2127.9299999999998
ssg12
(dp2405
g6
F12449024
sg7
F302.47000000000003
sg8
F4670
sg9
F3009.4200000000001
sssI599
(dp2406
g3
I5
sg4
(dp2407
g6
F22483888
sg7
F238.44999999999999
sg8
F4822.8100000000004
sg9
F1500.8900000000001
ssg10
(dp2408
g6
F2516512
sg7
F50.780000000000001
sg8
F576.65999999999997
sg9
F2842.73
ssg12
(dp2409
g6
F13679648
sg7
F331.68000000000001
sg8
F5115.3900000000003
sg9
F3570.2600000000002
sssI600
(dp2410
g3
I5
sg4
(dp2411
g6
F7087104
sg7
F194.06
sg8
F4549.7399999999998
sg9
F1377.21
ssg10
(dp2412
g6
F2538336
sg7
F48.57
sg8
F563.19000000000005
sg9
F2846.3800000000001
ssg12
(dp2413
g6
F13696816
sg7
F361.02999999999997
sg8
F5231.0799999999999
sg9
F3579.0599999999999
sssI601
(dp2414
g3
I5
sg4
(dp2415
g6
F19367184
sg7
F197.91999999999999
sg8
F4509.3199999999997
sg9
F1390.3699999999999
ssg10
(dp2416
g6
F2501760
sg7
F50.390000000000001
sg8
F559.91999999999996
sg9
F2548.7600000000002
ssg12
(dp2417
g6
F13522672
sg7
F327.5
sg8
F5104.4099999999999
sg9
F3698.8099999999999
sssI602
(dp2418
g3
I5
sg4
(dp2419
g6
F19725168
sg7
F230.72
sg8
F4956.4799999999996
sg9
F1536.6500000000001
ssg10
(dp2420
g6
F2731728
sg7
F59.039999999999999
sg8
F674.19000000000005
sg9
F2756.02
ssg12
(dp2421
g6
F14854032
sg7
F359.86000000000001
sg8
F5420.9499999999998
sg9
F3910.3499999999999
sssI603
(dp2422
g3
I5
sg4
(dp2423
g6
F26646160
sg7
F155.78
sg8
F4419.9200000000001
sg9
F1342.8800000000001
ssg10
(dp2424
g6
F2460592
sg7
F44.490000000000002
sg8
F566.41999999999996
sg9
F2540.04
ssg12
(dp2425
g6
F13339872
sg7
F292.89999999999998
sg8
F4820.29
sg9
F3603.1700000000001
sssI604
(dp2426
g3
I5
sg4
(dp2427
g6
F7661184
sg7
F132.53
sg8
F2824.1799999999998
sg9
F903.74000000000001
ssg10
(dp2428
g6
F2751360
sg7
F36.100000000000001
sg8
F468.02999999999997
sg9
F1504.0999999999999
ssg12
(dp2429
g6
F14919104
sg7
F184.16
sg8
F3803.5500000000002
sg9
F2555.6399999999999
sssI605
(dp2430
g3
I5
sg4
(dp2431
g6
F6939472
sg7
F67.650000000000006
sg8
F2393.9299999999998
sg9
F729.34000000000003
ssg10
(dp2432
g6
F2476288
sg7
F28.219999999999999
sg8
F376.14999999999998
sg9
F1495.47
ssg12
(dp2433
g6
F13371872
sg7
F176.37
sg8
F3353.9899999999998
sg9
F2333.0700000000002
sssI606
(dp2434
g3
I5
sg4
(dp2435
g6
F7573184
sg7
F214.81999999999999
sg8
F4877.8699999999999
sg9
F1471.3299999999999
ssg10
(dp2436
g6
F2704672
sg7
F51.890000000000001
sg8
F723.84000000000003
sg9
F1836.6900000000001
ssg12
(dp2437
g6
F14723920
sg7
F310.20999999999998
sg8
F5231.5600000000004
sg9
F4366.2700000000004
sssI607
(dp2438
g3
I5
sg4
(dp2439
g6
F19933184
sg7
F244.55000000000001
sg8
F3153.27
sg9
F1040.23
ssg10
(dp2440
g6
F2990208
sg7
F41.140000000000001
sg8
F556.16999999999996
sg9
F1795.73
ssg12
(dp2441
g6
F16252400
sg7
F214.12
sg8
F4157.8699999999999
sg9
F2921.4099999999999
sssI608
(dp2442
g3
I5
sg4
(dp2443
g6
F20748368
sg7
F176.46000000000001
sg8
F2738.9099999999999
sg9
F887.29999999999995
ssg10
(dp2444
g6
F2720416
sg7
F34.149999999999999
sg8
F451.92000000000002
sg9
F1608.1700000000001
ssg12
(dp2445
g6
F14735920
sg7
F205.69
sg8
F3678.73
sg9
F2590.5999999999999
sssI609
(dp2446
g3
I5
sg4
(dp2447
g6
F25430944
sg7
F149.84999999999999
sg8
F3067.6700000000001
sg9
F954.87
ssg10
(dp2448
g6
F2945504
sg7
F38.219999999999999
sg8
F523.09000000000003
sg9
F1984.5799999999999
ssg12
(dp2449
g6
F16070960
sg7
F225.61000000000001
sg8
F4004.46
sg9
F3043.9899999999998
sssI610
(dp2450
g3
I5
sg4
(dp2451
g6
F8232480
sg7
F117.13
sg8
F2890.6599999999999
sg9
F929.89999999999998
ssg10
(dp2452
g6
F2952768
sg7
F55.200000000000003
sg8
F554.10000000000002
sg9
F2555.6599999999999
ssg12
(dp2453
g6
F16090736
sg7
F222.03999999999999
sg8
F3988.5700000000002
sg9
F3186.8499999999999
sssI611
(dp2454
g3
I5
sg4
(dp2455
g6
F11377520
sg7
F125.76000000000001
sg8
F2493.52
sg9
F800.66999999999996
ssg10
(dp2456
g6
F2405984
sg7
F28.859999999999999
sg8
F388.06
sg9
F1127.1600000000001
ssg12
(dp2457
g6
F12970688
sg7
F169.78
sg8
F3373.1199999999999
sg9
F2062.8400000000001
sssI612
(dp2458
g3
I5
sg4
(dp2459
g6
F22985152
sg7
F167.59999999999999
sg8
F3967.52
sg9
F1267.98
ssg10
(dp2460
g6
F2119792
sg7
F40.259999999999998
sg8
F436.69999999999999
sg9
F1803.98
ssg12
(dp2461
g6
F11578192
sg7
F281.75
sg8
F4445.54
sg9
F3118.02
sssI613
(dp2462
g3
I5
sg4
(dp2463
g6
F27886144
sg7
F81.109999999999999
sg8
F2338.5599999999999
sg9
F761.08000000000004
ssg10
(dp2464
g6
F2357136
sg7
F27.649999999999999
sg8
F368.01999999999998
sg9
F1355.0799999999999
ssg12
(dp2465
g6
F12810240
sg7
F169.41999999999999
sg8
F3175.3000000000002
sg9
F2025.8499999999999
sssI614
(dp2466
g3
I5
sg4
(dp2467
g6
F6655776
sg7
F199.91999999999999
sg8
F4121.8100000000004
sg9
F1261.1500000000001
ssg10
(dp2468
g6
F2363968
sg7
F44.659999999999997
sg8
F497.50999999999999
sg9
F2372.6399999999999
ssg12
(dp2469
g6
F12785360
sg7
F311.77999999999997
sg8
F4881.8699999999999
sg9
F3521.1999999999998
sssI615
(dp2470
g3
I5
sg4
(dp2471
g6
F22591616
sg7
F47.119999999999997
sg8
F2518.2800000000002
sg9
F790.55999999999995
ssg10
(dp2472
g6
F2611408
sg7
F31.329999999999998
sg8
F429.38999999999999
sg9
F1346.53
ssg12
(dp2473
g6
F14141216
sg7
F194.58000000000001
sg8
F3531.52
sg9
F2348.3699999999999
sssI616
(dp2474
g3
I5
sg4
(dp2475
g6
F19210544
sg7
F194.91999999999999
sg8
F3686.0700000000002
sg9
F1109
ssg10
(dp2476
g6
F1978432
sg7
F33.670000000000002
sg8
F367.68000000000001
sg9
F1735.1500000000001
ssg12
(dp2477
g6
F10892752
sg7
F263.44
sg8
F3965.4400000000001
sg9
F3026.5999999999999
sssI617
(dp2478
g3
I5
sg4
(dp2479
g6
F19586800
sg7
F140.75999999999999
sg8
F2412.9699999999998
sg9
F770.51999999999998
ssg10
(dp2480
g6
F2214048
sg7
F24.100000000000001
sg8
F331.04000000000002
sg9
F1303.03
ssg12
(dp2481
g6
F12136480
sg7
F152.21000000000001
sg8
F2822.3299999999999
sg9
F1855.03
sssI618
(dp2482
g3
I5
sg4
(dp2483
g6
F28827120
sg7
F196.91999999999999
sg8
F3547.27
sg9
F1091.24
ssg10
(dp2484
g6
F1933936
sg7
F32.200000000000003
sg8
F374.37
sg9
F1626.8
ssg12
(dp2485
g6
F10859600
sg7
F234.97
sg8
F3588.1999999999998
sg9
F2872.54
sssI619
(dp2486
g3
I5
sg4
(dp2487
g6
F6266752
sg7
F111.25
sg8
F4008.9499999999998
sg9
F1185.46
ssg10
(dp2488
g6
F2213616
sg7
F40.369999999999997
sg8
F446.69999999999999
sg9
F2195.9699999999998
ssg12
(dp2489
g6
F12121232
sg7
F280.04000000000002
sg8
F4202.1499999999996
sg9
F3406.3099999999999
sssI620
(dp2490
g3
I5
sg4
(dp2491
g6
F5557264
sg7
F169.21000000000001
sg8
F3586.9899999999998
sg9
F1069.4300000000001
ssg10
(dp2492
g6
F1944544
sg7
F33.329999999999998
sg8
F350.79000000000002
sg9
F1930.1099999999999
ssg12
(dp2493
g6
F10881312
sg7
F249.78
sg8
F3614.2199999999998
sg9
F2949.5100000000002
sssI621
(dp2494
g3
I5
sg4
(dp2495
g6
F6176960
sg7
F202.08000000000001
sg8
F4019.6599999999999
sg9
F1214.01
ssg10
(dp2496
g6
F2176464
sg7
F42.890000000000001
sg8
F431.80000000000001
sg9
F2083.23
ssg12
(dp2497
g6
F11945872
sg7
F284.88
sg8
F4060.4499999999998
sg9
F3235.9499999999998
sssI622
(dp2498
g3
I5
sg4
(dp2499
g6
F19545456
sg7
F76
sg8
F2395.3800000000001
sg9
F739.13999999999999
ssg10
(dp2500
g6
F2461760
sg7
F29.390000000000001
sg8
F370.64999999999998
sg9
F1174.25
ssg12
(dp2501
g6
F13387632
sg7
F180.87
sg8
F3107.1700000000001
sg9
F2542.77
sssI623
(dp2502
g3
I5
sg4
(dp2503
g6
F25178656
sg7
F226.49000000000001
sg8
F4393.1300000000001
sg9
F1335.55
ssg10
(dp2504
g6
F2186288
sg7
F39.479999999999997
sg8
F454.17000000000002
sg9
F2050.9899999999998
ssg12
(dp2505
g6
F12032784
sg7
F255.53
sg8
F3930.1100000000001
sg9
F3226.75
sssI624
(dp2506
g3
I5
sg4
(dp2507
g6
F23587568
sg7
F183.18000000000001
sg8
F4274.4300000000003
sg9
F1301.1600000000001
ssg10
(dp2508
g6
F2422480
sg7
F46.030000000000001
sg8
F577.74000000000001
sg9
F2341.6900000000001
ssg12
(dp2509
g6
F13206720
sg7
F298.94
sg8
F4458.8699999999999
sg9
F3678.9400000000001
sssI625
(dp2510
g3
I5
sg4
(dp2511
g6
F6866928
sg7
F74.489999999999995
sg8
F2246.6999999999998
sg9
F706.70000000000005
ssg10
(dp2512
g6
F2432992
sg7
F37.840000000000003
sg8
F394.19
sg9
F1734.3399999999999
ssg12
(dp2513
g6
F13230448
sg7
F181.13
sg8
F3059.6199999999999
sg9
F2572.9499999999998
sssI626
(dp2514
g3
I5
sg4
(dp2515
g6
F19196352
sg7
F131.00999999999999
sg8
F3394.0500000000002
sg9
F1065.55
ssg10
(dp2516
g6
F1864096
sg7
F29.030000000000001
sg8
F343.57999999999998
sg9
F1710.3199999999999
ssg12
(dp2517
g6
F10883376
sg7
F201.09999999999999
sg8
F3272.1599999999999
sg9
F2951.0700000000002
sssI627
(dp2518
g3
I5
sg4
(dp2519
g6
F19683744
sg7
F73.709999999999994
sg8
F1693.8199999999999
sg9
F553.37
ssg10
(dp2520
g6
F1597920
sg7
F14.279999999999999
sg8
F210.93000000000001
sg9
F673.13
ssg12
(dp2521
g6
F10819616
sg7
F102.84
sg8
F1981.46
sg9
F1572.24
sssI628
(dp2522
g3
I5
sg4
(dp2523
g6
F21212992
sg7
F86.459999999999994
sg8
F1934.8299999999999
sg9
F638.69000000000005
ssg10
(dp2524
g6
F1834512
sg7
F17.760000000000002
sg8
F258.94999999999999
sg9
F808.04999999999995
ssg12
(dp2525
g6
F10841360
sg7
F121.73999999999999
sg8
F2380
sg9
F2004.96
sssI629
(dp2526
g3
I5
sg4
(dp2527
g6
F5264160
sg7
F72.689999999999998
sg8
F1805.71
sg9
F577.82000000000005
ssg10
(dp2528
g6
F1842048
sg7
F18
sg8
F229.22999999999999
sg9
F824.83000000000004
ssg12
(dp2529
g6
F10865600
sg7
F126
sg8
F2271.6599999999999
sg9
F1899.3699999999999
sssI630
(dp2530
g3
I5
sg4
(dp2531
g6
F21477200
sg7
F65.150000000000006
sg8
F2149.3699999999999
sg9
F705.30999999999995
ssg10
(dp2532
g6
F2081856
sg7
F21.620000000000001
sg8
F292.05000000000001
sg9
F710.00999999999999
ssg12
(dp2533
g6
F11439088
sg7
F147.31999999999999
sg8
F2596.9699999999998
sg9
F2062.3299999999999
sssI631
(dp2534
g3
I5
sg4
(dp2535
g6
F19649280
sg7
F94.810000000000002
sg8
F2369.0100000000002
sg9
F759.37
ssg10
(dp2536
g6
F2295696
sg7
F25.870000000000001
sg8
F330.29000000000002
sg9
F777.94000000000005
ssg12
(dp2537
g6
F12514256
sg7
F164.47
sg8
F2861.5900000000001
sg9
F2110.9099999999999
sssI632
(dp2538
g3
I5
sg4
(dp2539
g6
F22340752
sg7
F97.579999999999998
sg8
F2036.53
sg9
F681.21000000000004
ssg10
(dp2540
g6
F2016000
sg7
F27.57
sg8
F294.36000000000001
sg9
F864.32000000000005
ssg12
(dp2541
g6
F11125968
sg7
F136.41
sg8
F2427.29
sg9
F1636.9300000000001
sssI633
(dp2542
g3
I5
sg4
(dp2543
g6
F34608144
sg7
F152.13
sg8
F4092.9499999999998
sg9
F1225.4200000000001
ssg10
(dp2544
g6
F2246240
sg7
F39.229999999999997
sg8
F466.73000000000002
sg9
F964.50999999999999
ssg12
(dp2545
g6
F12363424
sg7
F250.47
sg8
F3994.1199999999999
sg9
F2374.25
sssI634
(dp2546
g3
I5
sg4
(dp2547
g6
F6391904
sg7
F184.56
sg8
F4106.8800000000001
sg9
F1229.1099999999999
ssg10
(dp2548
g6
F2263664
sg7
F46.509999999999998
sg8
F613.57000000000005
sg9
F1197.45
ssg12
(dp2549
g6
F12338640
sg7
F260.01999999999998
sg8
F3989.1900000000001
sg9
F2362.4200000000001
sssI635
(dp2550
g3
I5
sg4
(dp2551
g6
F24023312
sg7
F218.31
sg8
F2667.1999999999998
sg9
F852.92999999999995
ssg10
(dp2552
g6
F2509456
sg7
F31.73
sg8
F415.97000000000003
sg9
F901.17999999999995
ssg12
(dp2553
g6
F13627344
sg7
F174.38
sg8
F3233.23
sg9
F1917.6199999999999
sssI636
(dp2554
g3
I5
sg4
(dp2555
g6
F24156688
sg7
F195.96000000000001
sg8
F3595.7199999999998
sg9
F1097.22
ssg10
(dp2556
g6
F1914864
sg7
F35.229999999999997
sg8
F367.06
sg9
F795.38999999999999
ssg12
(dp2557
g6
F10843568
sg7
F222.46000000000001
sg8
F3294.6300000000001
sg9
F1890.24
sss.